# Disassembly of FUN_0042510c
# Address: 0x0042510c
# End: 0x004259d0
# Size: 0x8c4 (2244 bytes)
# Detection: jr ra
# GP = 0x1001db30
#
# Annotations: GP offsets, function calls, float constants
#


fsn.original:     file format elf32-tradbigmips


Disassembly of section .text:

0042510c <draw_directories+0xc>:
  42510c:	27bdffa8 	addiu	sp,sp,-88
  425110:	8f82806c 	lw	v0,-32660(gp)  # DAT_10010000
  425114:	afb3002c 	sw	s3,44(sp)
  425118:	8f93897c 	lw	s3,-30340(gp)  # curcontext
  42511c:	afb00020 	sw	s0,32(sp)
  425120:	24426c60 	addiu	v0,v0,27744
  425124:	8e700000 	lw	s0,0(s3)
  425128:	afbf0034 	sw	ra,52(sp)
  42512c:	afbc0030 	sw	gp,48(sp)
  425130:	afb20028 	sw	s2,40(sp)
  425134:	afb10024 	sw	s1,36(sp)
  425138:	e7b50018 	swc1	$f21,24(sp)
  42513c:	e7b4001c 	swc1	$f20,28(sp)
  425140:	afa40058 	sw	a0,88(sp)
  425144:	ac400000 	sw	zero,0(v0)
  425148:	ac400004 	sw	zero,4(v0)
  42514c:	8e06003c 	lw	a2,60(s0)
  425150:	00000000 	nop
  425154:	14c0020f 	bnez	a2,425994 <draw_directories+0x894>
  425158:	00000000 	nop
  42515c:	8f84892c 	lw	a0,-30420(gp)  # topdir
  425160:	93ae005b 	lbu	t6,91(sp)
  425164:	8c840000 	lw	a0,0(a0)
  425168:	00000000 	nop
  42516c:	10800210 	beqz	a0,4259b0 <draw_directories+0x8b0>
  425170:	8fbf0034 	lw	ra,52(sp)
  425174:	15c00200 	bnez	t6,425978 <draw_directories+0x878>
  425178:	00000000 	nop
  42517c:	c6040018 	lwc1	$f4,24(s0)
  425180:	c6080020 	lwc1	$f8,32(s0)
  425184:	460021a1 	cvt.d.s	$f6,$f4
  425188:	460042a1 	cvt.d.s	$f10,$f8
  42518c:	462a3402 	mul.d	$f16,$f6,$f10
  425190:	c6120008 	lwc1	$f18,8(s0)
  425194:	8f918a24 	lw	s1,-30172(gp)  # fsn_resources
  425198:	46009121 	cvt.d.s	$f4,$f18
  42519c:	c6060004 	lwc1	$f6,4(s0)
  4251a0:	46248202 	mul.d	$f8,$f16,$f4
  4251a4:	c6300108 	lwc1	$f16,264(s1)
  4251a8:	460032a1 	cvt.d.s	$f10,$f6
  4251ac:	46008121 	cvt.d.s	$f4,$f16
  4251b0:	8f99849c 	lw	t9,-31588(gp)
  4251b4:	46285481 	sub.d	$f18,$f10,$f8
  4251b8:	c62c0104 	lwc1	$f12,260(s1)
  4251bc:	46249183 	div.d	$f6,$f18,$f4
  4251c0:	0320f809 	jalr	t9
  4251c4:	462033a0 	cvt.s.d	$f14,$f6
  4251c8:	8e6f0000 	lw	t7,0(s3)
  4251cc:	c62a0110 	lwc1	$f10,272(s1)
  4251d0:	c5f00034 	lwc1	$f16,52(t7)
  4251d4:	46005221 	cvt.d.s	$f8,$f10
  4251d8:	460084a1 	cvt.d.s	$f18,$f16
  4251dc:	46324102 	mul.d	$f4,$f8,$f18
  4251e0:	460001a1 	cvt.d.s	$f6,$f0
  4251e4:	92380004 	lbu	t8,4(s1)
  4251e8:	8fbc0030 	lw	gp,48(sp)
  4251ec:	46262283 	div.d	$f10,$f4,$f6
  4251f0:	46205420 	cvt.s.d	$f16,$f10
  4251f4:	1300016d 	beqz	t8,4257ac <draw_directories+0x6ac>
  4251f8:	e7b00048 	swc1	$f16,72(sp)
  4251fc:	8f998338 	lw	t9,-31944(gp)  # zbuffer
  425200:	24040001 	li	a0,1
  425204:	0320f809 	jalr	t9  # call zbuffer
  425208:	00000000 	nop
  42520c:	8fbc0030 	lw	gp,48(sp)
  425210:	00000000 	nop
  425214:	8f99823c 	lw	t9,-32196(gp)  # bgnline
  425218:	00000000 	nop
  42521c:	0320f809 	jalr	t9  # call bgnline
  425220:	00000000 	nop
  425224:	8fbc0030 	lw	gp,48(sp)
  425228:	8e240150 	lw	a0,336(s1)
  42522c:	8f998464 	lw	t9,-31644(gp)  # cpack
  425230:	00000000 	nop
  425234:	0320f809 	jalr	t9  # call cpack
  425238:	00000000 	nop
  42523c:	8e700000 	lw	s0,0(s3)
  425240:	c7a80048 	lwc1	$f8,72(sp)
  425244:	c6120000 	lwc1	$f18,0(s0)
  425248:	46004521 	cvt.d.s	$f20,$f8
  42524c:	46009121 	cvt.d.s	$f4,$f18
  425250:	46342181 	sub.d	$f6,$f4,$f20
  425254:	c6320114 	lwc1	$f18,276(s1)
  425258:	462032a0 	cvt.s.d	$f10,$f6
  42525c:	8fbc0030 	lw	gp,48(sp)
  425260:	e7aa004c 	swc1	$f10,76(sp)
  425264:	c6100004 	lwc1	$f16,4(s0)
  425268:	46009121 	cvt.d.s	$f4,$f18
  42526c:	46008221 	cvt.d.s	$f8,$f16
  425270:	46244180 	add.d	$f6,$f8,$f4
  425274:	3c01bf00 	lui	at,0xbf00  # -0.5f
  425278:	44818000 	mtc1	at,$f16  # $f16 = -0.5f
  42527c:	8f998240 	lw	t9,-32192(gp)  # v3f
  425280:	462032a0 	cvt.s.d	$f10,$f6
  425284:	27b2004c 	addiu	s2,sp,76
  425288:	02402025 	move	a0,s2
  42528c:	e7aa0050 	swc1	$f10,80(sp)
  425290:	0320f809 	jalr	t9  # call v3f
  425294:	e7b00054 	swc1	$f16,84(sp)
  425298:	8e700000 	lw	s0,0(s3)
  42529c:	8fbc0030 	lw	gp,48(sp)
  4252a0:	c6120000 	lwc1	$f18,0(s0)
  4252a4:	3c01bf00 	lui	at,0xbf00  # -0.5f
  4252a8:	46009221 	cvt.d.s	$f8,$f18
  4252ac:	46344100 	add.d	$f4,$f8,$f20
  4252b0:	c6320114 	lwc1	$f18,276(s1)
  4252b4:	462021a0 	cvt.s.d	$f6,$f4
  4252b8:	8f998240 	lw	t9,-32192(gp)  # v3f
  4252bc:	e7a6004c 	swc1	$f6,76(sp)
  4252c0:	c60a0004 	lwc1	$f10,4(s0)
  4252c4:	46009221 	cvt.d.s	$f8,$f18
  4252c8:	46005421 	cvt.d.s	$f16,$f10
  4252cc:	46288100 	add.d	$f4,$f16,$f8
  4252d0:	44815000 	mtc1	at,$f10  # $f10 = -0.5f
  4252d4:	462021a0 	cvt.s.d	$f6,$f4
  4252d8:	02402025 	move	a0,s2
  4252dc:	e7a60050 	swc1	$f6,80(sp)
  4252e0:	0320f809 	jalr	t9  # call v3f
  4252e4:	e7aa0054 	swc1	$f10,84(sp)
  4252e8:	8fbc0030 	lw	gp,48(sp)
  4252ec:	8e24014c 	lw	a0,332(s1)
  4252f0:	8f998464 	lw	t9,-31644(gp)  # cpack
  4252f4:	00000000 	nop
  4252f8:	0320f809 	jalr	t9  # call cpack
  4252fc:	00000000 	nop
  425300:	8e700000 	lw	s0,0(s3)
  425304:	8fbc0030 	lw	gp,48(sp)
  425308:	c6120000 	lwc1	$f18,0(s0)
  42530c:	8f998240 	lw	t9,-32192(gp)  # v3f
  425310:	46009421 	cvt.d.s	$f16,$f18
  425314:	46348200 	add.d	$f8,$f16,$f20
  425318:	c6320114 	lwc1	$f18,276(s1)
  42531c:	46204120 	cvt.s.d	$f4,$f8
  425320:	02402025 	move	a0,s2
  425324:	e7a4004c 	swc1	$f4,76(sp)
  425328:	c6060004 	lwc1	$f6,4(s0)
  42532c:	46009421 	cvt.d.s	$f16,$f18
  425330:	460032a1 	cvt.d.s	$f10,$f6
  425334:	46305200 	add.d	$f8,$f10,$f16
  425338:	c62a010c 	lwc1	$f10,268(s1)
  42533c:	46204120 	cvt.s.d	$f4,$f8
  425340:	e7a40050 	swc1	$f4,80(sp)
  425344:	c6060008 	lwc1	$f6,8(s0)
  425348:	46005421 	cvt.d.s	$f16,$f10
  42534c:	460034a1 	cvt.d.s	$f18,$f6
  425350:	46309200 	add.d	$f8,$f18,$f16
  425354:	46204120 	cvt.s.d	$f4,$f8
  425358:	0320f809 	jalr	t9  # call v3f
  42535c:	e7a40054 	swc1	$f4,84(sp)
  425360:	8e700000 	lw	s0,0(s3)
  425364:	8fbc0030 	lw	gp,48(sp)
  425368:	c6060000 	lwc1	$f6,0(s0)
  42536c:	8f998240 	lw	t9,-32192(gp)  # v3f
  425370:	460032a1 	cvt.d.s	$f10,$f6
  425374:	46345481 	sub.d	$f18,$f10,$f20
  425378:	c6260114 	lwc1	$f6,276(s1)
  42537c:	46209420 	cvt.s.d	$f16,$f18
  425380:	02402025 	move	a0,s2
  425384:	e7b0004c 	swc1	$f16,76(sp)
  425388:	c6080004 	lwc1	$f8,4(s0)
  42538c:	460032a1 	cvt.d.s	$f10,$f6
  425390:	46004121 	cvt.d.s	$f4,$f8
  425394:	462a2480 	add.d	$f18,$f4,$f10
  425398:	c624010c 	lwc1	$f4,268(s1)
  42539c:	46209420 	cvt.s.d	$f16,$f18
  4253a0:	e7b00050 	swc1	$f16,80(sp)
  4253a4:	c6080008 	lwc1	$f8,8(s0)
  4253a8:	460022a1 	cvt.d.s	$f10,$f4
  4253ac:	460041a1 	cvt.d.s	$f6,$f8
  4253b0:	462a3480 	add.d	$f18,$f6,$f10
  4253b4:	46209420 	cvt.s.d	$f16,$f18
  4253b8:	0320f809 	jalr	t9  # call v3f
  4253bc:	e7b00054 	swc1	$f16,84(sp)
  4253c0:	8fbc0030 	lw	gp,48(sp)
  4253c4:	00000000 	nop
  4253c8:	8f998244 	lw	t9,-32188(gp)
  4253cc:	00000000 	nop
  4253d0:	0320f809 	jalr	t9
  4253d4:	00000000 	nop
  4253d8:	8fbc0030 	lw	gp,48(sp)
  4253dc:	00002025 	move	a0,zero
  4253e0:	8f998338 	lw	t9,-31944(gp)  # zbuffer
  4253e4:	00000000 	nop
  4253e8:	0320f809 	jalr	t9  # call zbuffer
  4253ec:	00000000 	nop
  4253f0:	8fbc0030 	lw	gp,48(sp)
  4253f4:	00000000 	nop
  4253f8:	8f99823c 	lw	t9,-32196(gp)  # bgnline
  4253fc:	00000000 	nop
  425400:	0320f809 	jalr	t9  # call bgnline
  425404:	00000000 	nop
  425408:	8fbc0030 	lw	gp,48(sp)
  42540c:	8e24014c 	lw	a0,332(s1)
  425410:	8f998464 	lw	t9,-31644(gp)  # cpack
  425414:	00000000 	nop
  425418:	0320f809 	jalr	t9  # call cpack
  42541c:	00000000 	nop
  425420:	8e700000 	lw	s0,0(s3)
  425424:	8fbc0030 	lw	gp,48(sp)
  425428:	c6080000 	lwc1	$f8,0(s0)
  42542c:	8f998240 	lw	t9,-32192(gp)  # v3f
  425430:	46004121 	cvt.d.s	$f4,$f8
  425434:	46342180 	add.d	$f6,$f4,$f20
  425438:	c6280114 	lwc1	$f8,276(s1)
  42543c:	462032a0 	cvt.s.d	$f10,$f6
  425440:	02402025 	move	a0,s2
  425444:	e7aa004c 	swc1	$f10,76(sp)
  425448:	c6120004 	lwc1	$f18,4(s0)
  42544c:	46004121 	cvt.d.s	$f4,$f8
  425450:	46009421 	cvt.d.s	$f16,$f18
  425454:	46248180 	add.d	$f6,$f16,$f4
  425458:	c630010c 	lwc1	$f16,268(s1)
  42545c:	462032a0 	cvt.s.d	$f10,$f6
  425460:	e7aa0050 	swc1	$f10,80(sp)
  425464:	c6120008 	lwc1	$f18,8(s0)
  425468:	46008121 	cvt.d.s	$f4,$f16
  42546c:	46009221 	cvt.d.s	$f8,$f18
  425470:	46244180 	add.d	$f6,$f8,$f4
  425474:	462032a0 	cvt.s.d	$f10,$f6
  425478:	0320f809 	jalr	t9  # call v3f
  42547c:	e7aa0054 	swc1	$f10,84(sp)
  425480:	8e700000 	lw	s0,0(s3)
  425484:	8fbc0030 	lw	gp,48(sp)
  425488:	c6120000 	lwc1	$f18,0(s0)
  42548c:	8f81805c 	lw	at,-32676(gp)  # DAT_10010000
  425490:	46009421 	cvt.d.s	$f16,$f18
  425494:	46348200 	add.d	$f8,$f16,$f20
  425498:	c6320114 	lwc1	$f18,276(s1)
  42549c:	46204120 	cvt.s.d	$f4,$f8
  4254a0:	8f998240 	lw	t9,-32192(gp)  # v3f
  4254a4:	e7a4004c 	swc1	$f4,76(sp)
  4254a8:	c6060004 	lwc1	$f6,4(s0)
  4254ac:	46009421 	cvt.d.s	$f16,$f18
  4254b0:	460032a1 	cvt.d.s	$f10,$f6
  4254b4:	46305200 	add.d	$f8,$f10,$f16
  4254b8:	c42abb64 	lwc1	$f10,-17564(at)
  4254bc:	46204120 	cvt.s.d	$f4,$f8
  4254c0:	c42bbb60 	lwc1	$f11,-17568(at)
  4254c4:	e7a40050 	swc1	$f4,80(sp)
  4254c8:	c6060008 	lwc1	$f6,8(s0)
  4254cc:	02402025 	move	a0,s2
  4254d0:	460034a1 	cvt.d.s	$f18,$f6
  4254d4:	462a9400 	add.d	$f16,$f18,$f10
  4254d8:	46208220 	cvt.s.d	$f8,$f16
  4254dc:	0320f809 	jalr	t9  # call v3f
  4254e0:	e7a80054 	swc1	$f8,84(sp)
  4254e4:	8e700000 	lw	s0,0(s3)
  4254e8:	8fbc0030 	lw	gp,48(sp)
  4254ec:	c6040000 	lwc1	$f4,0(s0)
  4254f0:	8f81805c 	lw	at,-32676(gp)  # DAT_10010000
  4254f4:	460021a1 	cvt.d.s	$f6,$f4
  4254f8:	46343481 	sub.d	$f18,$f6,$f20
  4254fc:	c6240114 	lwc1	$f4,276(s1)
  425500:	462092a0 	cvt.s.d	$f10,$f18
  425504:	8f998240 	lw	t9,-32192(gp)  # v3f
  425508:	e7aa004c 	swc1	$f10,76(sp)
  42550c:	c6100004 	lwc1	$f16,4(s0)
  425510:	460021a1 	cvt.d.s	$f6,$f4
  425514:	46008221 	cvt.d.s	$f8,$f16
  425518:	46264480 	add.d	$f18,$f8,$f6
  42551c:	c428bb6c 	lwc1	$f8,-17556(at)
  425520:	462092a0 	cvt.s.d	$f10,$f18
  425524:	c429bb68 	lwc1	$f9,-17560(at)
  425528:	e7aa0050 	swc1	$f10,80(sp)
  42552c:	c6100008 	lwc1	$f16,8(s0)
  425530:	02402025 	move	a0,s2
  425534:	46008121 	cvt.d.s	$f4,$f16
  425538:	46282180 	add.d	$f6,$f4,$f8
  42553c:	462034a0 	cvt.s.d	$f18,$f6
  425540:	0320f809 	jalr	t9  # call v3f
  425544:	e7b20054 	swc1	$f18,84(sp)
  425548:	8e700000 	lw	s0,0(s3)
  42554c:	8fbc0030 	lw	gp,48(sp)
  425550:	c60a0000 	lwc1	$f10,0(s0)
  425554:	8f998240 	lw	t9,-32192(gp)  # v3f
  425558:	46005421 	cvt.d.s	$f16,$f10
  42555c:	46348101 	sub.d	$f4,$f16,$f20
  425560:	c62a0114 	lwc1	$f10,276(s1)
  425564:	46202220 	cvt.s.d	$f8,$f4
  425568:	02402025 	move	a0,s2
  42556c:	e7a8004c 	swc1	$f8,76(sp)
  425570:	c6060004 	lwc1	$f6,4(s0)
  425574:	46005421 	cvt.d.s	$f16,$f10
  425578:	460034a1 	cvt.d.s	$f18,$f6
  42557c:	46309100 	add.d	$f4,$f18,$f16
  425580:	c632010c 	lwc1	$f18,268(s1)
  425584:	46202220 	cvt.s.d	$f8,$f4
  425588:	e7a80050 	swc1	$f8,80(sp)
  42558c:	c6060008 	lwc1	$f6,8(s0)
  425590:	46009421 	cvt.d.s	$f16,$f18
  425594:	460032a1 	cvt.d.s	$f10,$f6
  425598:	46305100 	add.d	$f4,$f10,$f16
  42559c:	46202220 	cvt.s.d	$f8,$f4
  4255a0:	0320f809 	jalr	t9  # call v3f
  4255a4:	e7a80054 	swc1	$f8,84(sp)
  4255a8:	8fbc0030 	lw	gp,48(sp)
  4255ac:	00000000 	nop
  4255b0:	8f998244 	lw	t9,-32188(gp)
  4255b4:	00000000 	nop
  4255b8:	0320f809 	jalr	t9
  4255bc:	00000000 	nop
  4255c0:	8fbc0030 	lw	gp,48(sp)
  4255c4:	24040001 	li	a0,1
  4255c8:	8f998338 	lw	t9,-31944(gp)  # zbuffer
  4255cc:	00000000 	nop
  4255d0:	0320f809 	jalr	t9  # call zbuffer
  4255d4:	00000000 	nop
  4255d8:	8fbc0030 	lw	gp,48(sp)
  4255dc:	00000000 	nop
  4255e0:	8f99823c 	lw	t9,-32196(gp)  # bgnline
  4255e4:	00000000 	nop
  4255e8:	0320f809 	jalr	t9  # call bgnline
  4255ec:	00000000 	nop
  4255f0:	8fbc0030 	lw	gp,48(sp)
  4255f4:	8e24015c 	lw	a0,348(s1)
  4255f8:	8f998464 	lw	t9,-31644(gp)  # cpack
  4255fc:	00000000 	nop
  425600:	0320f809 	jalr	t9  # call cpack
  425604:	00000000 	nop
  425608:	8e700000 	lw	s0,0(s3)
  42560c:	8fbc0030 	lw	gp,48(sp)
  425610:	c6060000 	lwc1	$f6,0(s0)
  425614:	3c01bf00 	lui	at,0xbf00  # -0.5f
  425618:	460034a1 	cvt.d.s	$f18,$f6
  42561c:	46349281 	sub.d	$f10,$f18,$f20
  425620:	c6260118 	lwc1	$f6,280(s1)
  425624:	46205420 	cvt.s.d	$f16,$f10
  425628:	8f998240 	lw	t9,-32192(gp)  # v3f
  42562c:	e7b0004c 	swc1	$f16,76(sp)
  425630:	c6040004 	lwc1	$f4,4(s0)
  425634:	460034a1 	cvt.d.s	$f18,$f6
  425638:	46002221 	cvt.d.s	$f8,$f4
  42563c:	46324281 	sub.d	$f10,$f8,$f18
  425640:	44812000 	mtc1	at,$f4  # $f4 = -0.5f
  425644:	46205420 	cvt.s.d	$f16,$f10
  425648:	02402025 	move	a0,s2
  42564c:	e7b00050 	swc1	$f16,80(sp)
  425650:	0320f809 	jalr	t9  # call v3f
  425654:	e7a40054 	swc1	$f4,84(sp)
  425658:	8e700000 	lw	s0,0(s3)
  42565c:	8fbc0030 	lw	gp,48(sp)
  425660:	c6060000 	lwc1	$f6,0(s0)
  425664:	3c01bf00 	lui	at,0xbf00  # -0.5f
  425668:	46003221 	cvt.d.s	$f8,$f6
  42566c:	46344480 	add.d	$f18,$f8,$f20
  425670:	c6260118 	lwc1	$f6,280(s1)
  425674:	462092a0 	cvt.s.d	$f10,$f18
  425678:	8f998240 	lw	t9,-32192(gp)  # v3f
  42567c:	e7aa004c 	swc1	$f10,76(sp)
  425680:	c6100004 	lwc1	$f16,4(s0)
  425684:	46003221 	cvt.d.s	$f8,$f6
  425688:	46008121 	cvt.d.s	$f4,$f16
  42568c:	46282481 	sub.d	$f18,$f4,$f8
  425690:	44818000 	mtc1	at,$f16  # $f16 = -0.5f
  425694:	462092a0 	cvt.s.d	$f10,$f18
  425698:	02402025 	move	a0,s2
  42569c:	e7aa0050 	swc1	$f10,80(sp)
  4256a0:	0320f809 	jalr	t9  # call v3f
  4256a4:	e7b00054 	swc1	$f16,84(sp)
  4256a8:	8fbc0030 	lw	gp,48(sp)
  4256ac:	8e240158 	lw	a0,344(s1)
  4256b0:	8f998464 	lw	t9,-31644(gp)  # cpack
  4256b4:	00000000 	nop
  4256b8:	0320f809 	jalr	t9  # call cpack
  4256bc:	00000000 	nop
  4256c0:	8e700000 	lw	s0,0(s3)
  4256c4:	8fbc0030 	lw	gp,48(sp)
  4256c8:	c6060000 	lwc1	$f6,0(s0)
  4256cc:	3c01bf00 	lui	at,0xbf00  # -0.5f
  4256d0:	46003121 	cvt.d.s	$f4,$f6
  4256d4:	46342200 	add.d	$f8,$f4,$f20
  4256d8:	c6260114 	lwc1	$f6,276(s1)
  4256dc:	462044a0 	cvt.s.d	$f18,$f8
  4256e0:	8f998240 	lw	t9,-32192(gp)  # v3f
  4256e4:	e7b2004c 	swc1	$f18,76(sp)
  4256e8:	c60a0004 	lwc1	$f10,4(s0)
  4256ec:	46003121 	cvt.d.s	$f4,$f6
  4256f0:	46005421 	cvt.d.s	$f16,$f10
  4256f4:	46248200 	add.d	$f8,$f16,$f4
  4256f8:	44815000 	mtc1	at,$f10  # $f10 = -0.5f
  4256fc:	462044a0 	cvt.s.d	$f18,$f8
  425700:	02402025 	move	a0,s2
  425704:	e7b20050 	swc1	$f18,80(sp)
  425708:	0320f809 	jalr	t9  # call v3f
  42570c:	e7aa0054 	swc1	$f10,84(sp)
  425710:	8e700000 	lw	s0,0(s3)
  425714:	8fbc0030 	lw	gp,48(sp)
  425718:	c6060000 	lwc1	$f6,0(s0)
  42571c:	3c01bf00 	lui	at,0xbf00  # -0.5f
  425720:	46003421 	cvt.d.s	$f16,$f6
  425724:	46348101 	sub.d	$f4,$f16,$f20
  425728:	c6260114 	lwc1	$f6,276(s1)
  42572c:	46202220 	cvt.s.d	$f8,$f4
  425730:	8f998240 	lw	t9,-32192(gp)  # v3f
  425734:	e7a8004c 	swc1	$f8,76(sp)
  425738:	c6120004 	lwc1	$f18,4(s0)
  42573c:	46003421 	cvt.d.s	$f16,$f6
  425740:	460092a1 	cvt.d.s	$f10,$f18
  425744:	46305100 	add.d	$f4,$f10,$f16
  425748:	44819000 	mtc1	at,$f18  # $f18 = -0.5f
  42574c:	46202220 	cvt.s.d	$f8,$f4
  425750:	02402025 	move	a0,s2
  425754:	e7a80050 	swc1	$f8,80(sp)
  425758:	0320f809 	jalr	t9  # call v3f
  42575c:	e7b20054 	swc1	$f18,84(sp)
  425760:	8fbc0030 	lw	gp,48(sp)
  425764:	00000000 	nop
  425768:	8f998244 	lw	t9,-32188(gp)
  42576c:	00000000 	nop
  425770:	0320f809 	jalr	t9
  425774:	00000000 	nop
  425778:	8fbc0030 	lw	gp,48(sp)
  42577c:	00002025 	move	a0,zero
  425780:	8f998338 	lw	t9,-31944(gp)  # zbuffer
  425784:	00000000 	nop
  425788:	0320f809 	jalr	t9  # call zbuffer
  42578c:	00000000 	nop
  425790:	8fbc0030 	lw	gp,48(sp)
  425794:	00000000 	nop
  425798:	8f84892c 	lw	a0,-30420(gp)  # topdir
  42579c:	00000000 	nop
  4257a0:	8c840000 	lw	a0,0(a0)
  4257a4:	10000074 	b	425978 <draw_directories+0x878>
  4257a8:	00000000 	nop
  4257ac:	8f998464 	lw	t9,-31644(gp)  # cpack
  4257b0:	8e240148 	lw	a0,328(s1)
  4257b4:	0320f809 	jalr	t9  # call cpack
  4257b8:	00000000 	nop
  4257bc:	8fbc0030 	lw	gp,48(sp)
  4257c0:	00000000 	nop
  4257c4:	8f99823c 	lw	t9,-32196(gp)  # bgnline
  4257c8:	00000000 	nop
  4257cc:	0320f809 	jalr	t9  # call bgnline
  4257d0:	00000000 	nop
  4257d4:	8e700000 	lw	s0,0(s3)
  4257d8:	c7a60048 	lwc1	$f6,72(sp)
  4257dc:	c60a0000 	lwc1	$f10,0(s0)
  4257e0:	46003521 	cvt.d.s	$f20,$f6
  4257e4:	46005421 	cvt.d.s	$f16,$f10
  4257e8:	46348101 	sub.d	$f4,$f16,$f20
  4257ec:	c62a0114 	lwc1	$f10,276(s1)
  4257f0:	46202220 	cvt.s.d	$f8,$f4
  4257f4:	8fbc0030 	lw	gp,48(sp)
  4257f8:	e7a8004c 	swc1	$f8,76(sp)
  4257fc:	c6120004 	lwc1	$f18,4(s0)
  425800:	46005421 	cvt.d.s	$f16,$f10
  425804:	460091a1 	cvt.d.s	$f6,$f18
  425808:	46303100 	add.d	$f4,$f6,$f16
  42580c:	3c01bf00 	lui	at,0xbf00  # -0.5f
  425810:	44819000 	mtc1	at,$f18  # $f18 = -0.5f
  425814:	8f998240 	lw	t9,-32192(gp)  # v3f
  425818:	46202220 	cvt.s.d	$f8,$f4
  42581c:	27b2004c 	addiu	s2,sp,76
  425820:	02402025 	move	a0,s2
  425824:	e7a80050 	swc1	$f8,80(sp)
  425828:	0320f809 	jalr	t9  # call v3f
  42582c:	e7b20054 	swc1	$f18,84(sp)
  425830:	8e700000 	lw	s0,0(s3)
  425834:	8fbc0030 	lw	gp,48(sp)
  425838:	c60a0000 	lwc1	$f10,0(s0)
  42583c:	3c01bf00 	lui	at,0xbf00  # -0.5f
  425840:	460051a1 	cvt.d.s	$f6,$f10
  425844:	46343400 	add.d	$f16,$f6,$f20
  425848:	c62a0114 	lwc1	$f10,276(s1)
  42584c:	46208120 	cvt.s.d	$f4,$f16
  425850:	8f998240 	lw	t9,-32192(gp)  # v3f
  425854:	e7a4004c 	swc1	$f4,76(sp)
  425858:	c6080004 	lwc1	$f8,4(s0)
  42585c:	460051a1 	cvt.d.s	$f6,$f10
  425860:	460044a1 	cvt.d.s	$f18,$f8
  425864:	46269400 	add.d	$f16,$f18,$f6
  425868:	44814000 	mtc1	at,$f8  # $f8 = -0.5f
  42586c:	46208120 	cvt.s.d	$f4,$f16
  425870:	02402025 	move	a0,s2
  425874:	e7a40050 	swc1	$f4,80(sp)
  425878:	0320f809 	jalr	t9  # call v3f
  42587c:	e7a80054 	swc1	$f8,84(sp)
  425880:	8e700000 	lw	s0,0(s3)
  425884:	8fbc0030 	lw	gp,48(sp)
  425888:	c60a0000 	lwc1	$f10,0(s0)
  42588c:	8f81805c 	lw	at,-32676(gp)  # DAT_10010000
  425890:	460054a1 	cvt.d.s	$f18,$f10
  425894:	46349180 	add.d	$f6,$f18,$f20
  425898:	c62a0114 	lwc1	$f10,276(s1)
  42589c:	46203420 	cvt.s.d	$f16,$f6
  4258a0:	8f998240 	lw	t9,-32192(gp)  # v3f
  4258a4:	e7b0004c 	swc1	$f16,76(sp)
  4258a8:	c6040004 	lwc1	$f4,4(s0)
  4258ac:	460054a1 	cvt.d.s	$f18,$f10
  4258b0:	46002221 	cvt.d.s	$f8,$f4
  4258b4:	46324180 	add.d	$f6,$f8,$f18
  4258b8:	c428bb74 	lwc1	$f8,-17548(at)
  4258bc:	46203420 	cvt.s.d	$f16,$f6
  4258c0:	c429bb70 	lwc1	$f9,-17552(at)
  4258c4:	e7b00050 	swc1	$f16,80(sp)
  4258c8:	c6040008 	lwc1	$f4,8(s0)
  4258cc:	02402025 	move	a0,s2
  4258d0:	460022a1 	cvt.d.s	$f10,$f4
  4258d4:	46285480 	add.d	$f18,$f10,$f8
  4258d8:	462091a0 	cvt.s.d	$f6,$f18
  4258dc:	0320f809 	jalr	t9  # call v3f
  4258e0:	e7a60054 	swc1	$f6,84(sp)
  4258e4:	8e700000 	lw	s0,0(s3)
  4258e8:	8fbc0030 	lw	gp,48(sp)
  4258ec:	c6100000 	lwc1	$f16,0(s0)
  4258f0:	8f81805c 	lw	at,-32676(gp)  # DAT_10010000
  4258f4:	46008121 	cvt.d.s	$f4,$f16
  4258f8:	46342281 	sub.d	$f10,$f4,$f20
  4258fc:	c6300114 	lwc1	$f16,276(s1)
  425900:	46205220 	cvt.s.d	$f8,$f10
  425904:	8f998240 	lw	t9,-32192(gp)  # v3f
  425908:	e7a8004c 	swc1	$f8,76(sp)
  42590c:	c6120004 	lwc1	$f18,4(s0)
  425910:	46008121 	cvt.d.s	$f4,$f16
  425914:	460091a1 	cvt.d.s	$f6,$f18
  425918:	46243280 	add.d	$f10,$f6,$f4
  42591c:	c426bb7c 	lwc1	$f6,-17540(at)
  425920:	46205220 	cvt.s.d	$f8,$f10
  425924:	c427bb78 	lwc1	$f7,-17544(at)
  425928:	e7a80050 	swc1	$f8,80(sp)
  42592c:	c6120008 	lwc1	$f18,8(s0)
  425930:	02402025 	move	a0,s2
  425934:	46009421 	cvt.d.s	$f16,$f18
  425938:	46268100 	add.d	$f4,$f16,$f6
  42593c:	462022a0 	cvt.s.d	$f10,$f4
  425940:	0320f809 	jalr	t9  # call v3f
  425944:	e7aa0054 	swc1	$f10,84(sp)
  425948:	8fbc0030 	lw	gp,48(sp)
  42594c:	00000000 	nop
  425950:	8f998244 	lw	t9,-32188(gp)
  425954:	00000000 	nop
  425958:	0320f809 	jalr	t9
  42595c:	00000000 	nop
  425960:	8fbc0030 	lw	gp,48(sp)
  425964:	00000000 	nop
  425968:	8f84892c 	lw	a0,-30420(gp)  # topdir
  42596c:	00000000 	nop
  425970:	8c840000 	lw	a0,0(a0)
  425974:	00000000 	nop
  425978:	8f9986c4 	lw	t9,-31036(gp)  # FUN_0042425c
  42597c:	93a5005b 	lbu	a1,91(sp)
  425980:	0320f809 	jalr	t9  # call FUN_0042425c
  425984:	00000000 	nop
  425988:	8fbc0030 	lw	gp,48(sp)
  42598c:	10000008 	b	4259b0 <draw_directories+0x8b0>
  425990:	8fbf0034 	lw	ra,52(sp)
  425994:	8f998604 	lw	t9,-31228(gp)  # FUN_00419424
  425998:	93a5005b 	lbu	a1,91(sp)
  42599c:	0320f809 	jalr	t9  # call FUN_00419424
  4259a0:	00c02025 	move	a0,a2
  4259a4:	8fbc0030 	lw	gp,48(sp)
  4259a8:	00000000 	nop
  4259ac:	8fbf0034 	lw	ra,52(sp)
  4259b0:	c7b50018 	lwc1	$f21,24(sp)
  4259b4:	c7b4001c 	lwc1	$f20,28(sp)
  4259b8:	8fb00020 	lw	s0,32(sp)
  4259bc:	8fb10024 	lw	s1,36(sp)
  4259c0:	8fb20028 	lw	s2,40(sp)
  4259c4:	8fb3002c 	lw	s3,44(sp)
  4259c8:	03e00008 	jr	ra
  4259cc:	27bd0058 	addiu	sp,sp,88


======================================================================
ANALYSIS SUMMARY: FUN_0042510c
======================================================================

FUNCTION CALLS:
----------------------------------------
  FUN_00419424
  FUN_0042425c
  bgnline (4x)
  cpack (6x)
  v3f (16x)
  zbuffer (4x)

IRISGL CALLS (with addresses):
----------------------------------------
  0x0042521c: bgnline
  0x00425234: cpack
  0x00425290: v3f
  0x004252e0: v3f
  0x004252f8: cpack
  0x00425358: v3f
  0x004253b8: v3f
  0x00425400: bgnline
  0x00425418: cpack
  0x00425478: v3f
  0x004254dc: v3f
  0x00425540: v3f
  0x004255a0: v3f
  0x004255e8: bgnline
  0x00425600: cpack
  0x00425650: v3f
  0x004256a0: v3f
  0x004256b8: cpack
  0x00425708: v3f
  0x00425758: v3f
  0x004257b4: cpack
  0x004257cc: bgnline
  0x00425828: v3f
  0x00425878: v3f
  0x004258dc: v3f
  0x00425940: v3f

FLOAT CONSTANTS LOADED:
----------------------------------------
  0xbf000000 = -0.5f

GP SYMBOL REFERENCES:
----------------------------------------
  DAT_10010000
  FUN_00419424
  FUN_0042425c
  bgnline
  cpack
  curcontext
  fsn_resources
  topdir
  v3f
  zbuffer

======================================================================