# Function: FUN_0040dff8
# Address: 0x0040dff8 - 0x0040ed40
# Size: 0xd48 (3400 bytes)
# End detected by: jr ra
# GP = 0x1001db30
#


fsn.original:     file format elf32-tradbigmips


Disassembly of section .text:

0040dff8 <setScales+0x800>:
  40dff8:	3c1c0fc1 	lui	gp,0xfc1
  40dffc:	279cfb38 	addiu	gp,gp,-1224
  40e000:	0399e021 	addu	gp,gp,t9
  40e004:	27bdff60 	addiu	sp,sp,-160
  40e008:	8f85805c 	lw	a1,-32676(gp)
  40e00c:	8f99842c 	lw	t9,-31700(gp)
  40e010:	afb00014 	sw	s0,20(sp)
  40e014:	27b0002c 	addiu	s0,sp,44
  40e018:	afbf001c 	sw	ra,28(sp)
  40e01c:	afbc0018 	sw	gp,24(sp)
  40e020:	afa400a0 	sw	a0,160(sp)
  40e024:	afa00028 	sw	zero,40(sp)
  40e028:	02003025 	move	a2,s0
  40e02c:	00003825 	move	a3,zero
  40e030:	0320f809 	jalr	t9
  40e034:	24a5a4f4 	addiu	a1,a1,-23308
  40e038:	8fbc0018 	lw	gp,24(sp)
  40e03c:	afa2009c 	sw	v0,156(sp)
  40e040:	8f998388 	lw	t9,-31864(gp)
  40e044:	00402025 	move	a0,v0
  40e048:	0320f809 	jalr	t9
  40e04c:	00000000 	nop
  40e050:	8fbc0018 	lw	gp,24(sp)
  40e054:	afa00028 	sw	zero,40(sp)
  40e058:	8f848a04 	lw	a0,-30204(gp)
  40e05c:	8f99880c 	lw	t9,-30708(gp)
  40e060:	8c840000 	lw	a0,0(a0)
  40e064:	00002825 	move	a1,zero
  40e068:	02003025 	move	a2,s0
  40e06c:	0320f809 	jalr	t9
  40e070:	27a70028 	addiu	a3,sp,40
  40e074:	8fbc0018 	lw	gp,24(sp)
  40e078:	8fa4009c 	lw	a0,156(sp)
  40e07c:	8f85805c 	lw	a1,-32676(gp)
  40e080:	8f998434 	lw	t9,-31692(gp)
  40e084:	8fa70028 	lw	a3,40(sp)
  40e088:	02003025 	move	a2,s0
  40e08c:	0320f809 	jalr	t9
  40e090:	24a5a4fc 	addiu	a1,a1,-23300
  40e094:	8fbc0018 	lw	gp,24(sp)
  40e098:	afa20094 	sw	v0,148(sp)
  40e09c:	8f8580a0 	lw	a1,-32608(gp)
  40e0a0:	8f8686b0 	lw	a2,-31056(gp)
  40e0a4:	8f9983ac 	lw	t9,-31828(gp)
  40e0a8:	00402025 	move	a0,v0
  40e0ac:	00003825 	move	a3,zero
  40e0b0:	24a51e96 	addiu	a1,a1,7830
  40e0b4:	0320f809 	jalr	t9
  40e0b8:	afa60024 	sw	a2,36(sp)
  40e0bc:	8fbc0018 	lw	gp,24(sp)
  40e0c0:	8fa40094 	lw	a0,148(sp)
  40e0c4:	8f8580a0 	lw	a1,-32608(gp)
  40e0c8:	8f8686ac 	lw	a2,-31060(gp)
  40e0cc:	8f9983ac 	lw	t9,-31828(gp)
  40e0d0:	00003825 	move	a3,zero
  40e0d4:	24a528d0 	addiu	a1,a1,10448
  40e0d8:	0320f809 	jalr	t9
  40e0dc:	afa60020 	sw	a2,32(sp)
  40e0e0:	8fbc0018 	lw	gp,24(sp)
  40e0e4:	8fa40094 	lw	a0,148(sp)
  40e0e8:	8f9987a4 	lw	t9,-30812(gp)
  40e0ec:	8f8589a4 	lw	a1,-30300(gp)
  40e0f0:	0320f809 	jalr	t9
  40e0f4:	00000000 	nop
  40e0f8:	8fbc0018 	lw	gp,24(sp)
  40e0fc:	8fa40094 	lw	a0,148(sp)
  40e100:	8f85805c 	lw	a1,-32676(gp)
  40e104:	8f99843c 	lw	t9,-31684(gp)
  40e108:	afa00028 	sw	zero,40(sp)
  40e10c:	02003025 	move	a2,s0
  40e110:	00003825 	move	a3,zero
  40e114:	0320f809 	jalr	t9
  40e118:	24a5a50c 	addiu	a1,a1,-23284
  40e11c:	8fbc0018 	lw	gp,24(sp)
  40e120:	00402025 	move	a0,v0
  40e124:	8f83806c 	lw	v1,-32660(gp)
  40e128:	00000000 	nop
  40e12c:	24636668 	addiu	v1,v1,26216
  40e130:	ac620000 	sw	v0,0(v1)
  40e134:	8f998388 	lw	t9,-31864(gp)
  40e138:	00000000 	nop
  40e13c:	0320f809 	jalr	t9
  40e140:	00000000 	nop
  40e144:	8fbc0018 	lw	gp,24(sp)
  40e148:	00003825 	move	a3,zero
  40e14c:	8f84806c 	lw	a0,-32660(gp)
  40e150:	8f8580a0 	lw	a1,-32608(gp)
  40e154:	8f868018 	lw	a2,-32744(gp)
  40e158:	8f9983ac 	lw	t9,-31828(gp)
  40e15c:	8c846668 	lw	a0,26216(a0)
  40e160:	24a5293d 	addiu	a1,a1,10557
  40e164:	0320f809 	jalr	t9
  40e168:	24c615f8 	addiu	a2,a2,5624
  40e16c:	8fbc0018 	lw	gp,24(sp)
  40e170:	8fa40094 	lw	a0,148(sp)
  40e174:	8f85805c 	lw	a1,-32676(gp)
  40e178:	8f9984e0 	lw	t9,-31520(gp)
  40e17c:	afa00028 	sw	zero,40(sp)
  40e180:	02003025 	move	a2,s0
  40e184:	00003825 	move	a3,zero
  40e188:	0320f809 	jalr	t9
  40e18c:	24a5a518 	addiu	a1,a1,-23272
  40e190:	8fbc0018 	lw	gp,24(sp)
  40e194:	afa2007c 	sw	v0,124(sp)
  40e198:	8f998388 	lw	t9,-31864(gp)
  40e19c:	00402025 	move	a0,v0
  40e1a0:	0320f809 	jalr	t9
  40e1a4:	00000000 	nop
  40e1a8:	8fbc0018 	lw	gp,24(sp)
  40e1ac:	8fa4007c 	lw	a0,124(sp)
  40e1b0:	8f8580a0 	lw	a1,-32608(gp)
  40e1b4:	8f9983ac 	lw	t9,-31828(gp)
  40e1b8:	8f8685c0 	lw	a2,-31296(gp)
  40e1bc:	00003825 	move	a3,zero
  40e1c0:	0320f809 	jalr	t9
  40e1c4:	24a5124b 	addiu	a1,a1,4683
  40e1c8:	8fbc0018 	lw	gp,24(sp)
  40e1cc:	8fa40094 	lw	a0,148(sp)
  40e1d0:	8f85805c 	lw	a1,-32676(gp)
  40e1d4:	8f9984e0 	lw	t9,-31520(gp)
  40e1d8:	afa00028 	sw	zero,40(sp)
  40e1dc:	02003025 	move	a2,s0
  40e1e0:	00003825 	move	a3,zero
  40e1e4:	0320f809 	jalr	t9
  40e1e8:	24a5a524 	addiu	a1,a1,-23260
  40e1ec:	8fbc0018 	lw	gp,24(sp)
  40e1f0:	afa2007c 	sw	v0,124(sp)
  40e1f4:	8f998388 	lw	t9,-31864(gp)
  40e1f8:	00402025 	move	a0,v0
  40e1fc:	0320f809 	jalr	t9
  40e200:	00000000 	nop
  40e204:	8fbc0018 	lw	gp,24(sp)
  40e208:	8fa4007c 	lw	a0,124(sp)
  40e20c:	8f8580a0 	lw	a1,-32608(gp)
  40e210:	8f9983ac 	lw	t9,-31828(gp)
  40e214:	8f8685b0 	lw	a2,-31312(gp)
  40e218:	00003825 	move	a3,zero
  40e21c:	0320f809 	jalr	t9
  40e220:	24a5124b 	addiu	a1,a1,4683
  40e224:	8fbc0018 	lw	gp,24(sp)
  40e228:	8fa40094 	lw	a0,148(sp)
  40e22c:	8f998624 	lw	t9,-31196(gp)
  40e230:	00000000 	nop
  40e234:	0320f809 	jalr	t9
  40e238:	00000000 	nop
  40e23c:	8fbc0018 	lw	gp,24(sp)
  40e240:	8fa40094 	lw	a0,148(sp)
  40e244:	8f85805c 	lw	a1,-32676(gp)
  40e248:	8f9984e0 	lw	t9,-31520(gp)
  40e24c:	afa00028 	sw	zero,40(sp)
  40e250:	02003025 	move	a2,s0
  40e254:	00003825 	move	a3,zero
  40e258:	0320f809 	jalr	t9
  40e25c:	24a5a530 	addiu	a1,a1,-23248
  40e260:	8fbc0018 	lw	gp,24(sp)
  40e264:	afa2007c 	sw	v0,124(sp)
  40e268:	8f998388 	lw	t9,-31864(gp)
  40e26c:	00402025 	move	a0,v0
  40e270:	0320f809 	jalr	t9
  40e274:	00000000 	nop
  40e278:	8fbc0018 	lw	gp,24(sp)
  40e27c:	8fa4007c 	lw	a0,124(sp)
  40e280:	8f8580a0 	lw	a1,-32608(gp)
  40e284:	8f868018 	lw	a2,-32744(gp)
  40e288:	8f9983ac 	lw	t9,-31828(gp)
  40e28c:	00003825 	move	a3,zero
  40e290:	24a5124b 	addiu	a1,a1,4683
  40e294:	0320f809 	jalr	t9
  40e298:	24c6eef0 	addiu	a2,a2,-4368
  40e29c:	8fbc0018 	lw	gp,24(sp)
  40e2a0:	8faf0094 	lw	t7,148(sp)
  40e2a4:	8f8e80a0 	lw	t6,-32608(gp)
  40e2a8:	8f85805c 	lw	a1,-32676(gp)
  40e2ac:	8f998408 	lw	t9,-31736(gp)
  40e2b0:	24180001 	li	t8,1
  40e2b4:	8fa4009c 	lw	a0,156(sp)
  40e2b8:	25ce26c9 	addiu	t6,t6,9929
  40e2bc:	afae002c 	sw	t6,44(sp)
  40e2c0:	afb80028 	sw	t8,40(sp)
  40e2c4:	02003025 	move	a2,s0
  40e2c8:	24070001 	li	a3,1
  40e2cc:	afaf0030 	sw	t7,48(sp)
  40e2d0:	0320f809 	jalr	t9
  40e2d4:	24a5a53c 	addiu	a1,a1,-23236
  40e2d8:	8fbc0018 	lw	gp,24(sp)
  40e2dc:	afa20098 	sw	v0,152(sp)
  40e2e0:	8f998388 	lw	t9,-31864(gp)
  40e2e4:	00402025 	move	a0,v0
  40e2e8:	0320f809 	jalr	t9
  40e2ec:	00000000 	nop
  40e2f0:	8fbc0018 	lw	gp,24(sp)
  40e2f4:	8fa40098 	lw	a0,152(sp)
  40e2f8:	8f9987a4 	lw	t9,-30812(gp)
  40e2fc:	8f8589a4 	lw	a1,-30300(gp)
  40e300:	0320f809 	jalr	t9
  40e304:	00000000 	nop
  40e308:	8fbc0018 	lw	gp,24(sp)
  40e30c:	afa00028 	sw	zero,40(sp)
  40e310:	8f848a04 	lw	a0,-30204(gp)
  40e314:	8f99880c 	lw	t9,-30708(gp)
  40e318:	8c840000 	lw	a0,0(a0)
  40e31c:	00002825 	move	a1,zero
  40e320:	02003025 	move	a2,s0
  40e324:	0320f809 	jalr	t9
  40e328:	27a70028 	addiu	a3,sp,40
  40e32c:	8fbc0018 	lw	gp,24(sp)
  40e330:	8fa4009c 	lw	a0,156(sp)
  40e334:	8f85805c 	lw	a1,-32676(gp)
  40e338:	8f998434 	lw	t9,-31692(gp)
  40e33c:	8fa70028 	lw	a3,40(sp)
  40e340:	02003025 	move	a2,s0
  40e344:	0320f809 	jalr	t9
  40e348:	24a5a548 	addiu	a1,a1,-23224
  40e34c:	8fbc0018 	lw	gp,24(sp)
  40e350:	8fa60024 	lw	a2,36(sp)
  40e354:	8f8580a0 	lw	a1,-32608(gp)
  40e358:	8f9983ac 	lw	t9,-31828(gp)
  40e35c:	afa2008c 	sw	v0,140(sp)
  40e360:	00402025 	move	a0,v0
  40e364:	00003825 	move	a3,zero
  40e368:	0320f809 	jalr	t9
  40e36c:	24a51e96 	addiu	a1,a1,7830
  40e370:	8fbc0018 	lw	gp,24(sp)
  40e374:	8fa4008c 	lw	a0,140(sp)
  40e378:	8f8580a0 	lw	a1,-32608(gp)
  40e37c:	8f9983ac 	lw	t9,-31828(gp)
  40e380:	8fa60020 	lw	a2,32(sp)
  40e384:	00003825 	move	a3,zero
  40e388:	0320f809 	jalr	t9
  40e38c:	24a528d0 	addiu	a1,a1,10448
  40e390:	8fbc0018 	lw	gp,24(sp)
  40e394:	8fa4008c 	lw	a0,140(sp)
  40e398:	8f998388 	lw	t9,-31864(gp)
  40e39c:	00000000 	nop
  40e3a0:	0320f809 	jalr	t9
  40e3a4:	00000000 	nop
  40e3a8:	8fbc0018 	lw	gp,24(sp)
  40e3ac:	8fa4008c 	lw	a0,140(sp)
  40e3b0:	8f9987a4 	lw	t9,-30812(gp)
  40e3b4:	8f8589a8 	lw	a1,-30296(gp)
  40e3b8:	0320f809 	jalr	t9
  40e3bc:	00000000 	nop
  40e3c0:	8fbc0018 	lw	gp,24(sp)
  40e3c4:	8fa4008c 	lw	a0,140(sp)
  40e3c8:	8f85805c 	lw	a1,-32676(gp)
  40e3cc:	8f9984e0 	lw	t9,-31520(gp)
  40e3d0:	afa00028 	sw	zero,40(sp)
  40e3d4:	02003025 	move	a2,s0
  40e3d8:	00003825 	move	a3,zero
  40e3dc:	0320f809 	jalr	t9
  40e3e0:	24a5a554 	addiu	a1,a1,-23212
  40e3e4:	8fbc0018 	lw	gp,24(sp)
  40e3e8:	afa2007c 	sw	v0,124(sp)
  40e3ec:	8f998388 	lw	t9,-31864(gp)
  40e3f0:	00402025 	move	a0,v0
  40e3f4:	0320f809 	jalr	t9
  40e3f8:	00000000 	nop
  40e3fc:	8fbc0018 	lw	gp,24(sp)
  40e400:	8fa4007c 	lw	a0,124(sp)
  40e404:	8f8580a0 	lw	a1,-32608(gp)
  40e408:	8f9983ac 	lw	t9,-31828(gp)
  40e40c:	8f86866c 	lw	a2,-31124(gp)
  40e410:	00003825 	move	a3,zero
  40e414:	0320f809 	jalr	t9
  40e418:	24a5124b 	addiu	a1,a1,4683
  40e41c:	8fbc0018 	lw	gp,24(sp)
  40e420:	8fa4008c 	lw	a0,140(sp)
  40e424:	8f85805c 	lw	a1,-32676(gp)
  40e428:	8f9984e0 	lw	t9,-31520(gp)
  40e42c:	afa00028 	sw	zero,40(sp)
  40e430:	02003025 	move	a2,s0
  40e434:	00003825 	move	a3,zero
  40e438:	0320f809 	jalr	t9
  40e43c:	24a5a564 	addiu	a1,a1,-23196
  40e440:	8fbc0018 	lw	gp,24(sp)
  40e444:	afa2007c 	sw	v0,124(sp)
  40e448:	8f998388 	lw	t9,-31864(gp)
  40e44c:	00402025 	move	a0,v0
  40e450:	0320f809 	jalr	t9
  40e454:	00000000 	nop
  40e458:	8fbc0018 	lw	gp,24(sp)
  40e45c:	8fa4007c 	lw	a0,124(sp)
  40e460:	8f8580a0 	lw	a1,-32608(gp)
  40e464:	8f868018 	lw	a2,-32744(gp)
  40e468:	8f9983ac 	lw	t9,-31828(gp)
  40e46c:	00003825 	move	a3,zero
  40e470:	24a5124b 	addiu	a1,a1,4683
  40e474:	0320f809 	jalr	t9
  40e478:	24c6dee0 	addiu	a2,a2,-8480
  40e47c:	8fbc0018 	lw	gp,24(sp)
  40e480:	8fa4008c 	lw	a0,140(sp)
  40e484:	8f85805c 	lw	a1,-32676(gp)
  40e488:	8f9984e0 	lw	t9,-31520(gp)
  40e48c:	afa00028 	sw	zero,40(sp)
  40e490:	02003025 	move	a2,s0
  40e494:	00003825 	move	a3,zero
  40e498:	0320f809 	jalr	t9
  40e49c:	24a5a574 	addiu	a1,a1,-23180
  40e4a0:	8fbc0018 	lw	gp,24(sp)
  40e4a4:	afa2007c 	sw	v0,124(sp)
  40e4a8:	8f998388 	lw	t9,-31864(gp)
  40e4ac:	00402025 	move	a0,v0
  40e4b0:	0320f809 	jalr	t9
  40e4b4:	00000000 	nop
  40e4b8:	8fbc0018 	lw	gp,24(sp)
  40e4bc:	8fa4007c 	lw	a0,124(sp)
  40e4c0:	8f8580a0 	lw	a1,-32608(gp)
  40e4c4:	8f868018 	lw	a2,-32744(gp)
  40e4c8:	8f9983ac 	lw	t9,-31828(gp)
  40e4cc:	00003825 	move	a3,zero
  40e4d0:	24a5124b 	addiu	a1,a1,4683
  40e4d4:	0320f809 	jalr	t9
  40e4d8:	24c6da94 	addiu	a2,a2,-9580
  40e4dc:	8fbc0018 	lw	gp,24(sp)
  40e4e0:	8fa4008c 	lw	a0,140(sp)
  40e4e4:	8f85805c 	lw	a1,-32676(gp)
  40e4e8:	8f9984e0 	lw	t9,-31520(gp)
  40e4ec:	afa00028 	sw	zero,40(sp)
  40e4f0:	02003025 	move	a2,s0
  40e4f4:	00003825 	move	a3,zero
  40e4f8:	0320f809 	jalr	t9
  40e4fc:	24a5a580 	addiu	a1,a1,-23168
  40e500:	8fbc0018 	lw	gp,24(sp)
  40e504:	afa2007c 	sw	v0,124(sp)
  40e508:	8f998388 	lw	t9,-31864(gp)
  40e50c:	00402025 	move	a0,v0
  40e510:	0320f809 	jalr	t9
  40e514:	00000000 	nop
  40e518:	8fbc0018 	lw	gp,24(sp)
  40e51c:	8fa4007c 	lw	a0,124(sp)
  40e520:	8f8580a0 	lw	a1,-32608(gp)
  40e524:	8f9983ac 	lw	t9,-31828(gp)
  40e528:	8f8687ac 	lw	a2,-30804(gp)
  40e52c:	00003825 	move	a3,zero
  40e530:	0320f809 	jalr	t9
  40e534:	24a5124b 	addiu	a1,a1,4683
  40e538:	8fbc0018 	lw	gp,24(sp)
  40e53c:	afa00028 	sw	zero,40(sp)
  40e540:	8f848a04 	lw	a0,-30204(gp)
  40e544:	8f99880c 	lw	t9,-30708(gp)
  40e548:	8c840000 	lw	a0,0(a0)
  40e54c:	00002825 	move	a1,zero
  40e550:	02003025 	move	a2,s0
  40e554:	0320f809 	jalr	t9
  40e558:	27a70028 	addiu	a3,sp,40
  40e55c:	8fbc0018 	lw	gp,24(sp)
  40e560:	8fa4008c 	lw	a0,140(sp)
  40e564:	8f85805c 	lw	a1,-32676(gp)
  40e568:	8f998434 	lw	t9,-31692(gp)
  40e56c:	8fa70028 	lw	a3,40(sp)
  40e570:	02003025 	move	a2,s0
  40e574:	0320f809 	jalr	t9
  40e578:	24a5a590 	addiu	a1,a1,-23152
  40e57c:	8fbc0018 	lw	gp,24(sp)
  40e580:	afa20088 	sw	v0,136(sp)
  40e584:	8f85805c 	lw	a1,-32676(gp)
  40e588:	8f9984e0 	lw	t9,-31520(gp)
  40e58c:	afa00028 	sw	zero,40(sp)
  40e590:	00402025 	move	a0,v0
  40e594:	02003025 	move	a2,s0
  40e598:	00003825 	move	a3,zero
  40e59c:	0320f809 	jalr	t9
  40e5a0:	24a5a59c 	addiu	a1,a1,-23140
  40e5a4:	8fbc0018 	lw	gp,24(sp)
  40e5a8:	afa2007c 	sw	v0,124(sp)
  40e5ac:	8f998388 	lw	t9,-31864(gp)
  40e5b0:	00402025 	move	a0,v0
  40e5b4:	0320f809 	jalr	t9
  40e5b8:	00000000 	nop
  40e5bc:	8fbc0018 	lw	gp,24(sp)
  40e5c0:	8fa4007c 	lw	a0,124(sp)
  40e5c4:	8f8580a0 	lw	a1,-32608(gp)
  40e5c8:	8f9983ac 	lw	t9,-31828(gp)
  40e5cc:	8f868680 	lw	a2,-31104(gp)
  40e5d0:	00003825 	move	a3,zero
  40e5d4:	0320f809 	jalr	t9
  40e5d8:	24a5124b 	addiu	a1,a1,4683
  40e5dc:	8fbc0018 	lw	gp,24(sp)
  40e5e0:	8fa40088 	lw	a0,136(sp)
  40e5e4:	8f85805c 	lw	a1,-32676(gp)
  40e5e8:	8f9984e0 	lw	t9,-31520(gp)
  40e5ec:	afa00028 	sw	zero,40(sp)
  40e5f0:	02003025 	move	a2,s0
  40e5f4:	00003825 	move	a3,zero
  40e5f8:	0320f809 	jalr	t9
  40e5fc:	24a5a5ac 	addiu	a1,a1,-23124
  40e600:	8fbc0018 	lw	gp,24(sp)
  40e604:	afa2007c 	sw	v0,124(sp)
  40e608:	8f998388 	lw	t9,-31864(gp)
  40e60c:	00402025 	move	a0,v0
  40e610:	0320f809 	jalr	t9
  40e614:	00000000 	nop
  40e618:	8fbc0018 	lw	gp,24(sp)
  40e61c:	8fa4007c 	lw	a0,124(sp)
  40e620:	8f8580a0 	lw	a1,-32608(gp)
  40e624:	8f868018 	lw	a2,-32744(gp)
  40e628:	8f9983ac 	lw	t9,-31828(gp)
  40e62c:	00003825 	move	a3,zero
  40e630:	24a5124b 	addiu	a1,a1,4683
  40e634:	0320f809 	jalr	t9
  40e638:	24c6df80 	addiu	a2,a2,-8320
  40e63c:	8fbc0018 	lw	gp,24(sp)
  40e640:	8fa40088 	lw	a0,136(sp)
  40e644:	8f85805c 	lw	a1,-32676(gp)
  40e648:	8f9984e0 	lw	t9,-31520(gp)
  40e64c:	afa00028 	sw	zero,40(sp)
  40e650:	02003025 	move	a2,s0
  40e654:	00003825 	move	a3,zero
  40e658:	0320f809 	jalr	t9
  40e65c:	24a5a5bc 	addiu	a1,a1,-23108
  40e660:	8fbc0018 	lw	gp,24(sp)
  40e664:	afa2007c 	sw	v0,124(sp)
  40e668:	8f998388 	lw	t9,-31864(gp)
  40e66c:	00402025 	move	a0,v0
  40e670:	0320f809 	jalr	t9
  40e674:	00000000 	nop
  40e678:	8fbc0018 	lw	gp,24(sp)
  40e67c:	8fa4007c 	lw	a0,124(sp)
  40e680:	8f8580a0 	lw	a1,-32608(gp)
  40e684:	8f868018 	lw	a2,-32744(gp)
  40e688:	8f9983ac 	lw	t9,-31828(gp)
  40e68c:	00003825 	move	a3,zero
  40e690:	24a5124b 	addiu	a1,a1,4683
  40e694:	0320f809 	jalr	t9
  40e698:	24c6de38 	addiu	a2,a2,-8648
  40e69c:	8fbc0018 	lw	gp,24(sp)
  40e6a0:	8fa40088 	lw	a0,136(sp)
  40e6a4:	8f85805c 	lw	a1,-32676(gp)
  40e6a8:	8f9984e0 	lw	t9,-31520(gp)
  40e6ac:	afa00028 	sw	zero,40(sp)
  40e6b0:	02003025 	move	a2,s0
  40e6b4:	00003825 	move	a3,zero
  40e6b8:	0320f809 	jalr	t9
  40e6bc:	24a5a5c8 	addiu	a1,a1,-23096
  40e6c0:	8fbc0018 	lw	gp,24(sp)
  40e6c4:	afa2007c 	sw	v0,124(sp)
  40e6c8:	8f998388 	lw	t9,-31864(gp)
  40e6cc:	00402025 	move	a0,v0
  40e6d0:	0320f809 	jalr	t9
  40e6d4:	00000000 	nop
  40e6d8:	8fbc0018 	lw	gp,24(sp)
  40e6dc:	8fa4007c 	lw	a0,124(sp)
  40e6e0:	8f8580a0 	lw	a1,-32608(gp)
  40e6e4:	8f9983ac 	lw	t9,-31828(gp)
  40e6e8:	8f8687b0 	lw	a2,-30800(gp)
  40e6ec:	00003825 	move	a3,zero
  40e6f0:	0320f809 	jalr	t9
  40e6f4:	24a5124b 	addiu	a1,a1,4683
  40e6f8:	8fbc0018 	lw	gp,24(sp)
  40e6fc:	8fa80088 	lw	t0,136(sp)
  40e700:	8f9980a0 	lw	t9,-32608(gp)
  40e704:	8f85805c 	lw	a1,-32676(gp)
  40e708:	273926c9 	addiu	t9,t9,9929
  40e70c:	afb9002c 	sw	t9,44(sp)
  40e710:	8f998408 	lw	t9,-31736(gp)
  40e714:	24090001 	li	t1,1
  40e718:	8fa4008c 	lw	a0,140(sp)
  40e71c:	afa90028 	sw	t1,40(sp)
  40e720:	02003025 	move	a2,s0
  40e724:	24070001 	li	a3,1
  40e728:	afa80030 	sw	t0,48(sp)
  40e72c:	0320f809 	jalr	t9
  40e730:	24a5a5d8 	addiu	a1,a1,-23080
  40e734:	8fbc0018 	lw	gp,24(sp)
  40e738:	00402025 	move	a0,v0
  40e73c:	8f998388 	lw	t9,-31864(gp)
  40e740:	00000000 	nop
  40e744:	0320f809 	jalr	t9
  40e748:	00000000 	nop
  40e74c:	8fbc0018 	lw	gp,24(sp)
  40e750:	8fab008c 	lw	t3,140(sp)
  40e754:	8f8a80a0 	lw	t2,-32608(gp)
  40e758:	8f85805c 	lw	a1,-32676(gp)
  40e75c:	8f998408 	lw	t9,-31736(gp)
  40e760:	240c0001 	li	t4,1
  40e764:	8fa4009c 	lw	a0,156(sp)
  40e768:	254a26c9 	addiu	t2,t2,9929
  40e76c:	afaa002c 	sw	t2,44(sp)
  40e770:	afac0028 	sw	t4,40(sp)
  40e774:	02003025 	move	a2,s0
  40e778:	24070001 	li	a3,1
  40e77c:	afab0030 	sw	t3,48(sp)
  40e780:	0320f809 	jalr	t9
  40e784:	24a5a5e4 	addiu	a1,a1,-23068
  40e788:	8fbc0018 	lw	gp,24(sp)
  40e78c:	afa20098 	sw	v0,152(sp)
  40e790:	8f998388 	lw	t9,-31864(gp)
  40e794:	00402025 	move	a0,v0
  40e798:	0320f809 	jalr	t9
  40e79c:	00000000 	nop
  40e7a0:	8fbc0018 	lw	gp,24(sp)
  40e7a4:	8fa40098 	lw	a0,152(sp)
  40e7a8:	8f9987a4 	lw	t9,-30812(gp)
  40e7ac:	8f8589a8 	lw	a1,-30296(gp)
  40e7b0:	0320f809 	jalr	t9
  40e7b4:	00000000 	nop
  40e7b8:	8fbc0018 	lw	gp,24(sp)
  40e7bc:	afa00028 	sw	zero,40(sp)
  40e7c0:	8f848a04 	lw	a0,-30204(gp)
  40e7c4:	8f99880c 	lw	t9,-30708(gp)
  40e7c8:	8c840000 	lw	a0,0(a0)
  40e7cc:	00002825 	move	a1,zero
  40e7d0:	02003025 	move	a2,s0
  40e7d4:	0320f809 	jalr	t9
  40e7d8:	27a70028 	addiu	a3,sp,40
  40e7dc:	8fbc0018 	lw	gp,24(sp)
  40e7e0:	8fa4009c 	lw	a0,156(sp)
  40e7e4:	8f85805c 	lw	a1,-32676(gp)
  40e7e8:	8f998434 	lw	t9,-31692(gp)
  40e7ec:	8fa70028 	lw	a3,40(sp)
  40e7f0:	02003025 	move	a2,s0
  40e7f4:	0320f809 	jalr	t9
  40e7f8:	24a5a5f0 	addiu	a1,a1,-23056
  40e7fc:	8fbc0018 	lw	gp,24(sp)
  40e800:	8fa60024 	lw	a2,36(sp)
  40e804:	8f8580a0 	lw	a1,-32608(gp)
  40e808:	8f9983ac 	lw	t9,-31828(gp)
  40e80c:	afa20090 	sw	v0,144(sp)
  40e810:	00402025 	move	a0,v0
  40e814:	00003825 	move	a3,zero
  40e818:	0320f809 	jalr	t9
  40e81c:	24a51e96 	addiu	a1,a1,7830
  40e820:	8fbc0018 	lw	gp,24(sp)
  40e824:	8fa40090 	lw	a0,144(sp)
  40e828:	8f8580a0 	lw	a1,-32608(gp)
  40e82c:	8f9983ac 	lw	t9,-31828(gp)
  40e830:	8fa60020 	lw	a2,32(sp)
  40e834:	00003825 	move	a3,zero
  40e838:	0320f809 	jalr	t9
  40e83c:	24a528d0 	addiu	a1,a1,10448
  40e840:	8fbc0018 	lw	gp,24(sp)
  40e844:	8fa40090 	lw	a0,144(sp)
  40e848:	8f998388 	lw	t9,-31864(gp)
  40e84c:	00000000 	nop
  40e850:	0320f809 	jalr	t9
  40e854:	00000000 	nop
  40e858:	8fbc0018 	lw	gp,24(sp)
  40e85c:	8fa40090 	lw	a0,144(sp)
  40e860:	8f9987a4 	lw	t9,-30812(gp)
  40e864:	8f8589ac 	lw	a1,-30292(gp)
  40e868:	0320f809 	jalr	t9
  40e86c:	00000000 	nop
  40e870:	8fbc0018 	lw	gp,24(sp)
  40e874:	8fae0090 	lw	t6,144(sp)
  40e878:	8f8d80a0 	lw	t5,-32608(gp)
  40e87c:	8f85805c 	lw	a1,-32676(gp)
  40e880:	8f998408 	lw	t9,-31736(gp)
  40e884:	240f0001 	li	t7,1
  40e888:	8fa4009c 	lw	a0,156(sp)
  40e88c:	25ad26c9 	addiu	t5,t5,9929
  40e890:	afad002c 	sw	t5,44(sp)
  40e894:	afaf0028 	sw	t7,40(sp)
  40e898:	02003025 	move	a2,s0
  40e89c:	24070001 	li	a3,1
  40e8a0:	afae0030 	sw	t6,48(sp)
  40e8a4:	0320f809 	jalr	t9
  40e8a8:	24a5a600 	addiu	a1,a1,-23040
  40e8ac:	8fbc0018 	lw	gp,24(sp)
  40e8b0:	afa20098 	sw	v0,152(sp)
  40e8b4:	8f998388 	lw	t9,-31864(gp)
  40e8b8:	00402025 	move	a0,v0
  40e8bc:	0320f809 	jalr	t9
  40e8c0:	00000000 	nop
  40e8c4:	8fbc0018 	lw	gp,24(sp)
  40e8c8:	8fa40098 	lw	a0,152(sp)
  40e8cc:	8f9987a4 	lw	t9,-30812(gp)
  40e8d0:	8f8589ac 	lw	a1,-30292(gp)
  40e8d4:	0320f809 	jalr	t9
  40e8d8:	00000000 	nop
  40e8dc:	8fbc0018 	lw	gp,24(sp)
  40e8e0:	24190001 	li	t9,1
  40e8e4:	8f9880a0 	lw	t8,-32608(gp)
  40e8e8:	8f848a04 	lw	a0,-30204(gp)
  40e8ec:	afb90030 	sw	t9,48(sp)
  40e8f0:	8f99880c 	lw	t9,-30708(gp)
  40e8f4:	24080001 	li	t0,1
  40e8f8:	271822e6 	addiu	t8,t8,8934
  40e8fc:	8c840000 	lw	a0,0(a0)
  40e900:	afb8002c 	sw	t8,44(sp)
  40e904:	afa80028 	sw	t0,40(sp)
  40e908:	00002825 	move	a1,zero
  40e90c:	02003025 	move	a2,s0
  40e910:	0320f809 	jalr	t9
  40e914:	27a70028 	addiu	a3,sp,40
  40e918:	8fbc0018 	lw	gp,24(sp)
  40e91c:	8fa40090 	lw	a0,144(sp)
  40e920:	8f85805c 	lw	a1,-32676(gp)
  40e924:	8f998434 	lw	t9,-31692(gp)
  40e928:	8fa70028 	lw	a3,40(sp)
  40e92c:	02003025 	move	a2,s0
  40e930:	0320f809 	jalr	t9
  40e934:	24a5a60c 	addiu	a1,a1,-23028
  40e938:	8fbc0018 	lw	gp,24(sp)
  40e93c:	240a0001 	li	t2,1
  40e940:	8f8980a0 	lw	t1,-32608(gp)
  40e944:	8f85805c 	lw	a1,-32676(gp)
  40e948:	8f998408 	lw	t9,-31736(gp)
  40e94c:	8fa40090 	lw	a0,144(sp)
  40e950:	252926c9 	addiu	t1,t1,9929
  40e954:	afa20084 	sw	v0,132(sp)
  40e958:	afa9002c 	sw	t1,44(sp)
  40e95c:	afaa0028 	sw	t2,40(sp)
  40e960:	afa20030 	sw	v0,48(sp)
  40e964:	02003025 	move	a2,s0
  40e968:	24070001 	li	a3,1
  40e96c:	0320f809 	jalr	t9
  40e970:	24a5a61c 	addiu	a1,a1,-23012
  40e974:	8fbc0018 	lw	gp,24(sp)
  40e978:	00402025 	move	a0,v0
  40e97c:	8f998388 	lw	t9,-31864(gp)
  40e980:	00000000 	nop
  40e984:	0320f809 	jalr	t9
  40e988:	00000000 	nop
  40e98c:	8fbc0018 	lw	gp,24(sp)
  40e990:	8fa40084 	lw	a0,132(sp)
  40e994:	8f85805c 	lw	a1,-32676(gp)
  40e998:	8f99843c 	lw	t9,-31684(gp)
  40e99c:	afa00028 	sw	zero,40(sp)
  40e9a0:	02003025 	move	a2,s0
  40e9a4:	00003825 	move	a3,zero
  40e9a8:	0320f809 	jalr	t9
  40e9ac:	24a5a628 	addiu	a1,a1,-23000
  40e9b0:	8fbc0018 	lw	gp,24(sp)
  40e9b4:	00402025 	move	a0,v0
  40e9b8:	8f83806c 	lw	v1,-32660(gp)
  40e9bc:	00000000 	nop
  40e9c0:	24636670 	addiu	v1,v1,26224
  40e9c4:	ac620000 	sw	v0,0(v1)
  40e9c8:	8f998388 	lw	t9,-31864(gp)
  40e9cc:	00000000 	nop
  40e9d0:	0320f809 	jalr	t9
  40e9d4:	00000000 	nop
  40e9d8:	8fbc0018 	lw	gp,24(sp)
  40e9dc:	00003825 	move	a3,zero
  40e9e0:	8f84806c 	lw	a0,-32660(gp)
  40e9e4:	8f868018 	lw	a2,-32744(gp)
  40e9e8:	8f8580a0 	lw	a1,-32608(gp)
  40e9ec:	8f9983ac 	lw	t9,-31828(gp)
  40e9f0:	8c846670 	lw	a0,26224(a0)
  40e9f4:	24c6ef44 	addiu	a2,a2,-4284
  40e9f8:	afa60024 	sw	a2,36(sp)
  40e9fc:	0320f809 	jalr	t9
  40ea00:	24a5293d 	addiu	a1,a1,10557
  40ea04:	8fbc0018 	lw	gp,24(sp)
  40ea08:	8fa40084 	lw	a0,132(sp)
  40ea0c:	8f85805c 	lw	a1,-32676(gp)
  40ea10:	8f99843c 	lw	t9,-31684(gp)
  40ea14:	afa00028 	sw	zero,40(sp)
  40ea18:	02003025 	move	a2,s0
  40ea1c:	00003825 	move	a3,zero
  40ea20:	0320f809 	jalr	t9
  40ea24:	24a5a638 	addiu	a1,a1,-22984
  40ea28:	8fbc0018 	lw	gp,24(sp)
  40ea2c:	00402025 	move	a0,v0
  40ea30:	8f83806c 	lw	v1,-32660(gp)
  40ea34:	00000000 	nop
  40ea38:	24636674 	addiu	v1,v1,26228
  40ea3c:	ac620000 	sw	v0,0(v1)
  40ea40:	8f998388 	lw	t9,-31864(gp)
  40ea44:	00000000 	nop
  40ea48:	0320f809 	jalr	t9
  40ea4c:	00000000 	nop
  40ea50:	8fbc0018 	lw	gp,24(sp)
  40ea54:	8fa60024 	lw	a2,36(sp)
  40ea58:	8f84806c 	lw	a0,-32660(gp)
  40ea5c:	8f8580a0 	lw	a1,-32608(gp)
  40ea60:	8f9983ac 	lw	t9,-31828(gp)
  40ea64:	8c846674 	lw	a0,26228(a0)
  40ea68:	24070001 	li	a3,1
  40ea6c:	0320f809 	jalr	t9
  40ea70:	24a5293d 	addiu	a1,a1,10557
  40ea74:	8fbc0018 	lw	gp,24(sp)
  40ea78:	8fa40084 	lw	a0,132(sp)
  40ea7c:	8f85805c 	lw	a1,-32676(gp)
  40ea80:	8f99843c 	lw	t9,-31684(gp)
  40ea84:	afa00028 	sw	zero,40(sp)
  40ea88:	02003025 	move	a2,s0
  40ea8c:	00003825 	move	a3,zero
  40ea90:	0320f809 	jalr	t9
  40ea94:	24a5a64c 	addiu	a1,a1,-22964
  40ea98:	8fbc0018 	lw	gp,24(sp)
  40ea9c:	00402025 	move	a0,v0
  40eaa0:	8f83806c 	lw	v1,-32660(gp)
  40eaa4:	00000000 	nop
  40eaa8:	24636678 	addiu	v1,v1,26232
  40eaac:	ac620000 	sw	v0,0(v1)
  40eab0:	8f998388 	lw	t9,-31864(gp)
  40eab4:	00000000 	nop
  40eab8:	0320f809 	jalr	t9
  40eabc:	00000000 	nop
  40eac0:	8fbc0018 	lw	gp,24(sp)
  40eac4:	8fa60024 	lw	a2,36(sp)
  40eac8:	8f84806c 	lw	a0,-32660(gp)
  40eacc:	8f8580a0 	lw	a1,-32608(gp)
  40ead0:	8f9983ac 	lw	t9,-31828(gp)
  40ead4:	8c846678 	lw	a0,26232(a0)
  40ead8:	24070002 	li	a3,2
  40eadc:	0320f809 	jalr	t9
  40eae0:	24a5293d 	addiu	a1,a1,10557
  40eae4:	8fbc0018 	lw	gp,24(sp)
  40eae8:	240c0001 	li	t4,1
  40eaec:	8f8b80a0 	lw	t3,-32608(gp)
  40eaf0:	8f848a04 	lw	a0,-30204(gp)
  40eaf4:	8f99880c 	lw	t9,-30708(gp)
  40eaf8:	240d0001 	li	t5,1
  40eafc:	256b22e6 	addiu	t3,t3,8934
  40eb00:	8c840000 	lw	a0,0(a0)
  40eb04:	afab002c 	sw	t3,44(sp)
  40eb08:	afad0028 	sw	t5,40(sp)
  40eb0c:	afac0030 	sw	t4,48(sp)
  40eb10:	00002825 	move	a1,zero
  40eb14:	02003025 	move	a2,s0
  40eb18:	0320f809 	jalr	t9
  40eb1c:	27a70028 	addiu	a3,sp,40
  40eb20:	8fbc0018 	lw	gp,24(sp)
  40eb24:	8fa40090 	lw	a0,144(sp)
  40eb28:	8f85805c 	lw	a1,-32676(gp)
  40eb2c:	8f998434 	lw	t9,-31692(gp)
  40eb30:	8fa70028 	lw	a3,40(sp)
  40eb34:	02003025 	move	a2,s0
  40eb38:	0320f809 	jalr	t9
  40eb3c:	24a5a664 	addiu	a1,a1,-22940
  40eb40:	8fbc0018 	lw	gp,24(sp)
  40eb44:	240f0001 	li	t7,1
  40eb48:	8f8e80a0 	lw	t6,-32608(gp)
  40eb4c:	8f85805c 	lw	a1,-32676(gp)
  40eb50:	8f998408 	lw	t9,-31736(gp)
  40eb54:	8fa40090 	lw	a0,144(sp)
  40eb58:	25ce26c9 	addiu	t6,t6,9929
  40eb5c:	afa20080 	sw	v0,128(sp)
  40eb60:	afae002c 	sw	t6,44(sp)
  40eb64:	afaf0028 	sw	t7,40(sp)
  40eb68:	afa20030 	sw	v0,48(sp)
  40eb6c:	02003025 	move	a2,s0
  40eb70:	24070001 	li	a3,1
  40eb74:	0320f809 	jalr	t9
  40eb78:	24a5a670 	addiu	a1,a1,-22928
  40eb7c:	8fbc0018 	lw	gp,24(sp)
  40eb80:	00402025 	move	a0,v0
  40eb84:	8f83806c 	lw	v1,-32660(gp)
  40eb88:	00000000 	nop
  40eb8c:	2463666c 	addiu	v1,v1,26220
  40eb90:	ac620000 	sw	v0,0(v1)
  40eb94:	8f998388 	lw	t9,-31864(gp)
  40eb98:	00000000 	nop
  40eb9c:	0320f809 	jalr	t9
  40eba0:	00000000 	nop
  40eba4:	8fbc0018 	lw	gp,24(sp)
  40eba8:	8fa40080 	lw	a0,128(sp)
  40ebac:	8f85805c 	lw	a1,-32676(gp)
  40ebb0:	8f99843c 	lw	t9,-31684(gp)
  40ebb4:	afa00028 	sw	zero,40(sp)
  40ebb8:	02003025 	move	a2,s0
  40ebbc:	00003825 	move	a3,zero
  40ebc0:	0320f809 	jalr	t9
  40ebc4:	24a5a684 	addiu	a1,a1,-22908
  40ebc8:	8fbc0018 	lw	gp,24(sp)
  40ebcc:	00402025 	move	a0,v0
  40ebd0:	8f83806c 	lw	v1,-32660(gp)
  40ebd4:	00000000 	nop
  40ebd8:	2463667c 	addiu	v1,v1,26236
  40ebdc:	ac620000 	sw	v0,0(v1)
  40ebe0:	8f998388 	lw	t9,-31864(gp)
  40ebe4:	00000000 	nop
  40ebe8:	0320f809 	jalr	t9
  40ebec:	00000000 	nop
  40ebf0:	8fbc0018 	lw	gp,24(sp)
  40ebf4:	00003825 	move	a3,zero
  40ebf8:	8f84806c 	lw	a0,-32660(gp)
  40ebfc:	8f868018 	lw	a2,-32744(gp)
  40ec00:	8f8580a0 	lw	a1,-32608(gp)
  40ec04:	8f9983ac 	lw	t9,-31828(gp)
  40ec08:	8c84667c 	lw	a0,26236(a0)
  40ec0c:	24c6eff8 	addiu	a2,a2,-4104
  40ec10:	afa60024 	sw	a2,36(sp)
  40ec14:	0320f809 	jalr	t9
  40ec18:	24a5293d 	addiu	a1,a1,10557
  40ec1c:	8fbc0018 	lw	gp,24(sp)
  40ec20:	8fa40080 	lw	a0,128(sp)
  40ec24:	8f85805c 	lw	a1,-32676(gp)
  40ec28:	8f99843c 	lw	t9,-31684(gp)
  40ec2c:	afa00028 	sw	zero,40(sp)
  40ec30:	02003025 	move	a2,s0
  40ec34:	00003825 	move	a3,zero
  40ec38:	0320f809 	jalr	t9
  40ec3c:	24a5a698 	addiu	a1,a1,-22888
  40ec40:	8fbc0018 	lw	gp,24(sp)
  40ec44:	00402025 	move	a0,v0
  40ec48:	8f83806c 	lw	v1,-32660(gp)
  40ec4c:	00000000 	nop
  40ec50:	24636680 	addiu	v1,v1,26240
  40ec54:	ac620000 	sw	v0,0(v1)
  40ec58:	8f998388 	lw	t9,-31864(gp)
  40ec5c:	00000000 	nop
  40ec60:	0320f809 	jalr	t9
  40ec64:	00000000 	nop
  40ec68:	8fbc0018 	lw	gp,24(sp)
  40ec6c:	8fa60024 	lw	a2,36(sp)
  40ec70:	8f84806c 	lw	a0,-32660(gp)
  40ec74:	8f8580a0 	lw	a1,-32608(gp)
  40ec78:	8f9983ac 	lw	t9,-31828(gp)
  40ec7c:	8c846680 	lw	a0,26240(a0)
  40ec80:	24070001 	li	a3,1
  40ec84:	0320f809 	jalr	t9
  40ec88:	24a5293d 	addiu	a1,a1,10557
  40ec8c:	8fbc0018 	lw	gp,24(sp)
  40ec90:	8fa40080 	lw	a0,128(sp)
  40ec94:	8f85805c 	lw	a1,-32676(gp)
  40ec98:	8f99843c 	lw	t9,-31684(gp)
  40ec9c:	afa00028 	sw	zero,40(sp)
  40eca0:	02003025 	move	a2,s0
  40eca4:	00003825 	move	a3,zero
  40eca8:	0320f809 	jalr	t9
  40ecac:	24a5a6b0 	addiu	a1,a1,-22864
  40ecb0:	8fbc0018 	lw	gp,24(sp)
  40ecb4:	00402025 	move	a0,v0
  40ecb8:	8f90806c 	lw	s0,-32660(gp)
  40ecbc:	00000000 	nop
  40ecc0:	26106684 	addiu	s0,s0,26244
  40ecc4:	ae020000 	sw	v0,0(s0)
  40ecc8:	8f998388 	lw	t9,-31864(gp)
  40eccc:	00000000 	nop
  40ecd0:	0320f809 	jalr	t9
  40ecd4:	00000000 	nop
  40ecd8:	8fbc0018 	lw	gp,24(sp)
  40ecdc:	8e040000 	lw	a0,0(s0)
  40ece0:	8f8580a0 	lw	a1,-32608(gp)
  40ece4:	8f9983ac 	lw	t9,-31828(gp)
  40ece8:	8fa60024 	lw	a2,36(sp)
  40ecec:	24070002 	li	a3,2
  40ecf0:	0320f809 	jalr	t9
  40ecf4:	24a5293d 	addiu	a1,a1,10557
  40ecf8:	8fbc0018 	lw	gp,24(sp)
  40ecfc:	8fa4009c 	lw	a0,156(sp)
  40ed00:	8f998620 	lw	t9,-31200(gp)
  40ed04:	8fa500a0 	lw	a1,160(sp)
  40ed08:	0320f809 	jalr	t9
  40ed0c:	00000000 	nop
  40ed10:	8fbc0018 	lw	gp,24(sp)
  40ed14:	8fa4009c 	lw	a0,156(sp)
  40ed18:	8f9987a0 	lw	t9,-30816(gp)
  40ed1c:	00000000 	nop
  40ed20:	0320f809 	jalr	t9
  40ed24:	00000000 	nop
  40ed28:	8fbf001c 	lw	ra,28(sp)
  40ed2c:	8fbc0018 	lw	gp,24(sp)
  40ed30:	8fa2009c 	lw	v0,156(sp)
  40ed34:	8fb00014 	lw	s0,20(sp)
  40ed38:	03e00008 	jr	ra
  40ed3c:	27bd00a0 	addiu	sp,sp,160
