# Function: socket
# Address: 0x00409fd0 - 0x0040a6e8
# Size: 0x718 (1816 bytes)
# End detected by: next prologue
# GP = 0x1001db30
#


fsn.original:     file format elf32-tradbigmips


Disassembly of section .text:

00409fd0 <_ftext+0xb90>:
  409fd0:	8f998010 	lw	t9,-32752(gp)
  409fd4:	03e07821 	move	t7,ra
  409fd8:	0320f809 	jalr	t9
  409fdc:	3418011a 	li	t8,0x11a
  409fe0:	8f998010 	lw	t9,-32752(gp)
  409fe4:	03e07821 	move	t7,ra
  409fe8:	0320f809 	jalr	t9
  409fec:	3418011b 	li	t8,0x11b
  409ff0:	8f998010 	lw	t9,-32752(gp)
  409ff4:	03e07821 	move	t7,ra
  409ff8:	0320f809 	jalr	t9
  409ffc:	3418011c 	li	t8,0x11c
  40a000:	8f998010 	lw	t9,-32752(gp)
  40a004:	03e07821 	move	t7,ra
  40a008:	0320f809 	jalr	t9
  40a00c:	3418011d 	li	t8,0x11d
  40a010:	8f998010 	lw	t9,-32752(gp)
  40a014:	03e07821 	move	t7,ra
  40a018:	0320f809 	jalr	t9
  40a01c:	3418011e 	li	t8,0x11e
  40a020:	8f998010 	lw	t9,-32752(gp)
  40a024:	03e07821 	move	t7,ra
  40a028:	0320f809 	jalr	t9
  40a02c:	3418011f 	li	t8,0x11f
  40a030:	8f998010 	lw	t9,-32752(gp)
  40a034:	03e07821 	move	t7,ra
  40a038:	0320f809 	jalr	t9
  40a03c:	34180120 	li	t8,0x120
  40a040:	8f998010 	lw	t9,-32752(gp)
  40a044:	03e07821 	move	t7,ra
  40a048:	0320f809 	jalr	t9
  40a04c:	34180121 	li	t8,0x121
  40a050:	8f998010 	lw	t9,-32752(gp)
  40a054:	03e07821 	move	t7,ra
  40a058:	0320f809 	jalr	t9
  40a05c:	34180122 	li	t8,0x122
  40a060:	8f998010 	lw	t9,-32752(gp)
  40a064:	03e07821 	move	t7,ra
  40a068:	0320f809 	jalr	t9
  40a06c:	34180123 	li	t8,0x123
  40a070:	8f998010 	lw	t9,-32752(gp)
  40a074:	03e07821 	move	t7,ra
  40a078:	0320f809 	jalr	t9
  40a07c:	34180124 	li	t8,0x124
  40a080:	8f998010 	lw	t9,-32752(gp)
  40a084:	03e07821 	move	t7,ra
  40a088:	0320f809 	jalr	t9
  40a08c:	34180125 	li	t8,0x125
  40a090:	8f998010 	lw	t9,-32752(gp)
  40a094:	03e07821 	move	t7,ra
  40a098:	0320f809 	jalr	t9
  40a09c:	34180126 	li	t8,0x126
  40a0a0:	8f998010 	lw	t9,-32752(gp)
  40a0a4:	03e07821 	move	t7,ra
  40a0a8:	0320f809 	jalr	t9
  40a0ac:	34180127 	li	t8,0x127
  40a0b0:	8f998010 	lw	t9,-32752(gp)
  40a0b4:	03e07821 	move	t7,ra
  40a0b8:	0320f809 	jalr	t9
  40a0bc:	34180128 	li	t8,0x128
  40a0c0:	8f998010 	lw	t9,-32752(gp)
  40a0c4:	03e07821 	move	t7,ra
  40a0c8:	0320f809 	jalr	t9
  40a0cc:	34180129 	li	t8,0x129
  40a0d0:	8f998010 	lw	t9,-32752(gp)
  40a0d4:	03e07821 	move	t7,ra
  40a0d8:	0320f809 	jalr	t9
  40a0dc:	3418012a 	li	t8,0x12a
  40a0e0:	8f998010 	lw	t9,-32752(gp)
  40a0e4:	03e07821 	move	t7,ra
  40a0e8:	0320f809 	jalr	t9
  40a0ec:	3418012b 	li	t8,0x12b
  40a0f0:	8f998010 	lw	t9,-32752(gp)
  40a0f4:	03e07821 	move	t7,ra
  40a0f8:	0320f809 	jalr	t9
  40a0fc:	3418012c 	li	t8,0x12c
  40a100:	8f998010 	lw	t9,-32752(gp)
  40a104:	03e07821 	move	t7,ra
  40a108:	0320f809 	jalr	t9
  40a10c:	3418012d 	li	t8,0x12d
  40a110:	8f998010 	lw	t9,-32752(gp)
  40a114:	03e07821 	move	t7,ra
  40a118:	0320f809 	jalr	t9
  40a11c:	3418012e 	li	t8,0x12e
  40a120:	8f998010 	lw	t9,-32752(gp)
  40a124:	03e07821 	move	t7,ra
  40a128:	0320f809 	jalr	t9
  40a12c:	3418012f 	li	t8,0x12f
  40a130:	8f998010 	lw	t9,-32752(gp)
  40a134:	03e07821 	move	t7,ra
  40a138:	0320f809 	jalr	t9
  40a13c:	34180130 	li	t8,0x130
  40a140:	8f998010 	lw	t9,-32752(gp)
  40a144:	03e07821 	move	t7,ra
  40a148:	0320f809 	jalr	t9
  40a14c:	34180131 	li	t8,0x131
  40a150:	8f998010 	lw	t9,-32752(gp)
  40a154:	03e07821 	move	t7,ra
  40a158:	0320f809 	jalr	t9
  40a15c:	34180132 	li	t8,0x132
  40a160:	8f998010 	lw	t9,-32752(gp)
  40a164:	03e07821 	move	t7,ra
  40a168:	0320f809 	jalr	t9
  40a16c:	34180133 	li	t8,0x133
  40a170:	8f998010 	lw	t9,-32752(gp)
  40a174:	03e07821 	move	t7,ra
  40a178:	0320f809 	jalr	t9
  40a17c:	34180134 	li	t8,0x134
  40a180:	8f998010 	lw	t9,-32752(gp)
  40a184:	03e07821 	move	t7,ra
  40a188:	0320f809 	jalr	t9
  40a18c:	34180135 	li	t8,0x135
  40a190:	8f998010 	lw	t9,-32752(gp)
  40a194:	03e07821 	move	t7,ra
  40a198:	0320f809 	jalr	t9
  40a19c:	34180136 	li	t8,0x136
  40a1a0:	8f998010 	lw	t9,-32752(gp)
  40a1a4:	03e07821 	move	t7,ra
  40a1a8:	0320f809 	jalr	t9
  40a1ac:	34180137 	li	t8,0x137
  40a1b0:	8f998010 	lw	t9,-32752(gp)
  40a1b4:	03e07821 	move	t7,ra
  40a1b8:	0320f809 	jalr	t9
  40a1bc:	34180138 	li	t8,0x138
  40a1c0:	8f998010 	lw	t9,-32752(gp)
  40a1c4:	03e07821 	move	t7,ra
  40a1c8:	0320f809 	jalr	t9
  40a1cc:	34180139 	li	t8,0x139
  40a1d0:	8f998010 	lw	t9,-32752(gp)
  40a1d4:	03e07821 	move	t7,ra
  40a1d8:	0320f809 	jalr	t9
  40a1dc:	3418013a 	li	t8,0x13a
  40a1e0:	8f998010 	lw	t9,-32752(gp)
  40a1e4:	03e07821 	move	t7,ra
  40a1e8:	0320f809 	jalr	t9
  40a1ec:	3418013b 	li	t8,0x13b
  40a1f0:	8f998010 	lw	t9,-32752(gp)
  40a1f4:	03e07821 	move	t7,ra
  40a1f8:	0320f809 	jalr	t9
  40a1fc:	3418013c 	li	t8,0x13c
  40a200:	8f998010 	lw	t9,-32752(gp)
  40a204:	03e07821 	move	t7,ra
  40a208:	0320f809 	jalr	t9
  40a20c:	3418013d 	li	t8,0x13d
  40a210:	8f998010 	lw	t9,-32752(gp)
  40a214:	03e07821 	move	t7,ra
  40a218:	0320f809 	jalr	t9
  40a21c:	3418013e 	li	t8,0x13e
  40a220:	8f998010 	lw	t9,-32752(gp)
  40a224:	03e07821 	move	t7,ra
  40a228:	0320f809 	jalr	t9
  40a22c:	3418013f 	li	t8,0x13f
  40a230:	8f998010 	lw	t9,-32752(gp)
  40a234:	03e07821 	move	t7,ra
  40a238:	0320f809 	jalr	t9
  40a23c:	34180140 	li	t8,0x140
  40a240:	8f998010 	lw	t9,-32752(gp)
  40a244:	03e07821 	move	t7,ra
  40a248:	0320f809 	jalr	t9
  40a24c:	34180141 	li	t8,0x141
  40a250:	8f998010 	lw	t9,-32752(gp)
  40a254:	03e07821 	move	t7,ra
  40a258:	0320f809 	jalr	t9
  40a25c:	34180142 	li	t8,0x142
  40a260:	8f998010 	lw	t9,-32752(gp)
  40a264:	03e07821 	move	t7,ra
  40a268:	0320f809 	jalr	t9
  40a26c:	34180143 	li	t8,0x143
  40a270:	8f998010 	lw	t9,-32752(gp)
  40a274:	03e07821 	move	t7,ra
  40a278:	0320f809 	jalr	t9
  40a27c:	34180144 	li	t8,0x144
  40a280:	8f998010 	lw	t9,-32752(gp)
  40a284:	03e07821 	move	t7,ra
  40a288:	0320f809 	jalr	t9
  40a28c:	34180145 	li	t8,0x145
  40a290:	8f998010 	lw	t9,-32752(gp)
  40a294:	03e07821 	move	t7,ra
  40a298:	0320f809 	jalr	t9
  40a29c:	34180146 	li	t8,0x146
  40a2a0:	8f998010 	lw	t9,-32752(gp)
  40a2a4:	03e07821 	move	t7,ra
  40a2a8:	0320f809 	jalr	t9
  40a2ac:	34180147 	li	t8,0x147
  40a2b0:	8f998010 	lw	t9,-32752(gp)
  40a2b4:	03e07821 	move	t7,ra
  40a2b8:	0320f809 	jalr	t9
  40a2bc:	34180148 	li	t8,0x148
  40a2c0:	8f998010 	lw	t9,-32752(gp)
  40a2c4:	03e07821 	move	t7,ra
  40a2c8:	0320f809 	jalr	t9
  40a2cc:	34180149 	li	t8,0x149
  40a2d0:	8f998010 	lw	t9,-32752(gp)
  40a2d4:	03e07821 	move	t7,ra
  40a2d8:	0320f809 	jalr	t9
  40a2dc:	3418014a 	li	t8,0x14a
  40a2e0:	8f998010 	lw	t9,-32752(gp)
  40a2e4:	03e07821 	move	t7,ra
  40a2e8:	0320f809 	jalr	t9
  40a2ec:	3418014b 	li	t8,0x14b
  40a2f0:	8f998010 	lw	t9,-32752(gp)
  40a2f4:	03e07821 	move	t7,ra
  40a2f8:	0320f809 	jalr	t9
  40a2fc:	3418014c 	li	t8,0x14c
  40a300:	8f998010 	lw	t9,-32752(gp)
  40a304:	03e07821 	move	t7,ra
  40a308:	0320f809 	jalr	t9
  40a30c:	3418014d 	li	t8,0x14d
  40a310:	8f998010 	lw	t9,-32752(gp)
  40a314:	03e07821 	move	t7,ra
  40a318:	0320f809 	jalr	t9
  40a31c:	3418014e 	li	t8,0x14e
  40a320:	8f998010 	lw	t9,-32752(gp)
  40a324:	03e07821 	move	t7,ra
  40a328:	0320f809 	jalr	t9
  40a32c:	3418014f 	li	t8,0x14f
  40a330:	8f998010 	lw	t9,-32752(gp)
  40a334:	03e07821 	move	t7,ra
  40a338:	0320f809 	jalr	t9
  40a33c:	34180150 	li	t8,0x150
  40a340:	8f998010 	lw	t9,-32752(gp)
  40a344:	03e07821 	move	t7,ra
  40a348:	0320f809 	jalr	t9
  40a34c:	34180151 	li	t8,0x151
  40a350:	8f998010 	lw	t9,-32752(gp)
  40a354:	03e07821 	move	t7,ra
  40a358:	0320f809 	jalr	t9
  40a35c:	34180152 	li	t8,0x152
  40a360:	8f998010 	lw	t9,-32752(gp)
  40a364:	03e07821 	move	t7,ra
  40a368:	0320f809 	jalr	t9
  40a36c:	34180153 	li	t8,0x153
  40a370:	8f998010 	lw	t9,-32752(gp)
  40a374:	03e07821 	move	t7,ra
  40a378:	0320f809 	jalr	t9
  40a37c:	34180154 	li	t8,0x154
  40a380:	8f998010 	lw	t9,-32752(gp)
  40a384:	03e07821 	move	t7,ra
  40a388:	0320f809 	jalr	t9
  40a38c:	34180155 	li	t8,0x155
  40a390:	8f998010 	lw	t9,-32752(gp)
  40a394:	03e07821 	move	t7,ra
  40a398:	0320f809 	jalr	t9
  40a39c:	34180156 	li	t8,0x156
  40a3a0:	8f998010 	lw	t9,-32752(gp)
  40a3a4:	03e07821 	move	t7,ra
  40a3a8:	0320f809 	jalr	t9
  40a3ac:	34180157 	li	t8,0x157
  40a3b0:	8f998010 	lw	t9,-32752(gp)
  40a3b4:	03e07821 	move	t7,ra
  40a3b8:	0320f809 	jalr	t9
  40a3bc:	34180158 	li	t8,0x158
  40a3c0:	8f998010 	lw	t9,-32752(gp)
  40a3c4:	03e07821 	move	t7,ra
  40a3c8:	0320f809 	jalr	t9
  40a3cc:	34180159 	li	t8,0x159
  40a3d0:	8f998010 	lw	t9,-32752(gp)
  40a3d4:	03e07821 	move	t7,ra
  40a3d8:	0320f809 	jalr	t9
  40a3dc:	3418015a 	li	t8,0x15a
  40a3e0:	8f998010 	lw	t9,-32752(gp)
  40a3e4:	03e07821 	move	t7,ra
  40a3e8:	0320f809 	jalr	t9
  40a3ec:	3418015b 	li	t8,0x15b
  40a3f0:	8f998010 	lw	t9,-32752(gp)
  40a3f4:	03e07821 	move	t7,ra
  40a3f8:	0320f809 	jalr	t9
  40a3fc:	3418015c 	li	t8,0x15c
  40a400:	8f998010 	lw	t9,-32752(gp)
  40a404:	03e07821 	move	t7,ra
  40a408:	0320f809 	jalr	t9
  40a40c:	3418015d 	li	t8,0x15d
  40a410:	8f998010 	lw	t9,-32752(gp)
  40a414:	03e07821 	move	t7,ra
  40a418:	0320f809 	jalr	t9
  40a41c:	3418015e 	li	t8,0x15e
  40a420:	8f998010 	lw	t9,-32752(gp)
  40a424:	03e07821 	move	t7,ra
  40a428:	0320f809 	jalr	t9
  40a42c:	3418015f 	li	t8,0x15f
  40a430:	8f998010 	lw	t9,-32752(gp)
  40a434:	03e07821 	move	t7,ra
  40a438:	0320f809 	jalr	t9
  40a43c:	34180160 	li	t8,0x160
  40a440:	8f998010 	lw	t9,-32752(gp)
  40a444:	03e07821 	move	t7,ra
  40a448:	0320f809 	jalr	t9
  40a44c:	34180161 	li	t8,0x161
  40a450:	8f998010 	lw	t9,-32752(gp)
  40a454:	03e07821 	move	t7,ra
  40a458:	0320f809 	jalr	t9
  40a45c:	34180162 	li	t8,0x162
  40a460:	8f998010 	lw	t9,-32752(gp)
  40a464:	03e07821 	move	t7,ra
  40a468:	0320f809 	jalr	t9
  40a46c:	34180163 	li	t8,0x163
  40a470:	8f998010 	lw	t9,-32752(gp)
  40a474:	03e07821 	move	t7,ra
  40a478:	0320f809 	jalr	t9
  40a47c:	34180164 	li	t8,0x164
  40a480:	8f998010 	lw	t9,-32752(gp)
  40a484:	03e07821 	move	t7,ra
  40a488:	0320f809 	jalr	t9
  40a48c:	34180165 	li	t8,0x165
  40a490:	8f998010 	lw	t9,-32752(gp)
  40a494:	03e07821 	move	t7,ra
  40a498:	0320f809 	jalr	t9
  40a49c:	34180166 	li	t8,0x166
  40a4a0:	8f998010 	lw	t9,-32752(gp)
  40a4a4:	03e07821 	move	t7,ra
  40a4a8:	0320f809 	jalr	t9
  40a4ac:	34180167 	li	t8,0x167
  40a4b0:	8f998010 	lw	t9,-32752(gp)
  40a4b4:	03e07821 	move	t7,ra
  40a4b8:	0320f809 	jalr	t9
  40a4bc:	34180168 	li	t8,0x168
  40a4c0:	8f998010 	lw	t9,-32752(gp)
  40a4c4:	03e07821 	move	t7,ra
  40a4c8:	0320f809 	jalr	t9
  40a4cc:	34180169 	li	t8,0x169
  40a4d0:	8f998010 	lw	t9,-32752(gp)
  40a4d4:	03e07821 	move	t7,ra
  40a4d8:	0320f809 	jalr	t9
  40a4dc:	3418016a 	li	t8,0x16a
  40a4e0:	8f998010 	lw	t9,-32752(gp)
  40a4e4:	03e07821 	move	t7,ra
  40a4e8:	0320f809 	jalr	t9
  40a4ec:	3418016b 	li	t8,0x16b
  40a4f0:	8f998010 	lw	t9,-32752(gp)
  40a4f4:	03e07821 	move	t7,ra
  40a4f8:	0320f809 	jalr	t9
  40a4fc:	3418016c 	li	t8,0x16c
  40a500:	8f998010 	lw	t9,-32752(gp)
  40a504:	03e07821 	move	t7,ra
  40a508:	0320f809 	jalr	t9
  40a50c:	3418016d 	li	t8,0x16d
  40a510:	8f998010 	lw	t9,-32752(gp)
  40a514:	03e07821 	move	t7,ra
  40a518:	0320f809 	jalr	t9
  40a51c:	3418016e 	li	t8,0x16e
  40a520:	8f998010 	lw	t9,-32752(gp)
  40a524:	03e07821 	move	t7,ra
  40a528:	0320f809 	jalr	t9
  40a52c:	3418016f 	li	t8,0x16f
  40a530:	8f998010 	lw	t9,-32752(gp)
  40a534:	03e07821 	move	t7,ra
  40a538:	0320f809 	jalr	t9
  40a53c:	34180170 	li	t8,0x170
  40a540:	8f998010 	lw	t9,-32752(gp)
  40a544:	03e07821 	move	t7,ra
  40a548:	0320f809 	jalr	t9
  40a54c:	34180171 	li	t8,0x171
  40a550:	8f998010 	lw	t9,-32752(gp)
  40a554:	03e07821 	move	t7,ra
  40a558:	0320f809 	jalr	t9
  40a55c:	34180172 	li	t8,0x172
  40a560:	8f998010 	lw	t9,-32752(gp)
  40a564:	03e07821 	move	t7,ra
  40a568:	0320f809 	jalr	t9
  40a56c:	34180173 	li	t8,0x173
  40a570:	8f998010 	lw	t9,-32752(gp)
  40a574:	03e07821 	move	t7,ra
  40a578:	0320f809 	jalr	t9
  40a57c:	34180174 	li	t8,0x174
  40a580:	8f998010 	lw	t9,-32752(gp)
  40a584:	03e07821 	move	t7,ra
  40a588:	0320f809 	jalr	t9
  40a58c:	34180175 	li	t8,0x175
  40a590:	8f998010 	lw	t9,-32752(gp)
  40a594:	03e07821 	move	t7,ra
  40a598:	0320f809 	jalr	t9
  40a59c:	34180176 	li	t8,0x176
  40a5a0:	8f998010 	lw	t9,-32752(gp)
  40a5a4:	03e07821 	move	t7,ra
  40a5a8:	0320f809 	jalr	t9
  40a5ac:	34180177 	li	t8,0x177
  40a5b0:	8f998010 	lw	t9,-32752(gp)
  40a5b4:	03e07821 	move	t7,ra
  40a5b8:	0320f809 	jalr	t9
  40a5bc:	34180178 	li	t8,0x178
  40a5c0:	8f998010 	lw	t9,-32752(gp)
  40a5c4:	03e07821 	move	t7,ra
  40a5c8:	0320f809 	jalr	t9
  40a5cc:	34180179 	li	t8,0x179
  40a5d0:	8f998010 	lw	t9,-32752(gp)
  40a5d4:	03e07821 	move	t7,ra
  40a5d8:	0320f809 	jalr	t9
  40a5dc:	3418017a 	li	t8,0x17a

0040a5e0 <__start>:
  40a5e0:	03e04025 	move	t0,ra
  40a5e4:	04110001 	bal	40a5ec <__start+0xc>
  40a5e8:	00000000 	nop
  40a5ec:	3c1c0fc1 	lui	gp,0xfc1
  40a5f0:	279c3544 	addiu	gp,gp,13636
  40a5f4:	039fe021 	addu	gp,gp,ra
  40a5f8:	0100f825 	move	ra,t0
  40a5fc:	8fa40000 	lw	a0,0(sp)
  40a600:	3c010000 	lui	at,0x0
  40a604:	27a50004 	addiu	a1,sp,4
  40a608:	003c0821 	addu	at,at,gp
  40a60c:	8c2180b8 	lw	at,-32584(at)
  40a610:	24a60004 	addiu	a2,a1,4
  40a614:	00041080 	sll	v0,a0,0x2
  40a618:	00c23021 	addu	a2,a2,v0
  40a61c:	ac260000 	sw	a2,0(at)
  40a620:	3c010000 	lui	at,0x0
  40a624:	003c0821 	addu	at,at,gp
  40a628:	8c2189f4 	lw	at,-30220(at)
  40a62c:	3c190000 	lui	t9,0x0
  40a630:	ac240000 	sw	a0,0(at)
  40a634:	3c010000 	lui	at,0x0
  40a638:	003c0821 	addu	at,at,gp
  40a63c:	8c2189f8 	lw	at,-30216(at)
  40a640:	033cc821 	addu	t9,t9,gp
  40a644:	8f398914 	lw	t9,-30444(t9)
  40a648:	27bdffe8 	addiu	sp,sp,-24
  40a64c:	afbc0010 	sw	gp,16(sp)
  40a650:	afa00014 	sw	zero,20(sp)
  40a654:	0000f025 	move	s8,zero
  40a658:	0320f809 	jalr	t9
  40a65c:	ac250000 	sw	a1,0(at)
  40a660:	8fbc0010 	lw	gp,16(sp)
  40a664:	3c190000 	lui	t9,0x0
  40a668:	033cc821 	addu	t9,t9,gp
  40a66c:	8f3983a4 	lw	t9,-31836(t9)
  40a670:	00000000 	nop
  40a674:	0320f809 	jalr	t9
  40a678:	00000000 	nop
  40a67c:	8fbc0010 	lw	gp,16(sp)
  40a680:	3c040000 	lui	a0,0x0
  40a684:	3c050000 	lui	a1,0x0
  40a688:	3c060000 	lui	a2,0x0
  40a68c:	3c190000 	lui	t9,0x0
  40a690:	009c2021 	addu	a0,a0,gp
  40a694:	00bc2821 	addu	a1,a1,gp
  40a698:	00dc3021 	addu	a2,a2,gp
  40a69c:	8c8489f4 	lw	a0,-30220(a0)
  40a6a0:	8ca589f8 	lw	a1,-30216(a1)
  40a6a4:	8cc680b8 	lw	a2,-32584(a2)
  40a6a8:	033cc821 	addu	t9,t9,gp
  40a6ac:	8f398518 	lw	t9,-31464(t9)
  40a6b0:	8c840000 	lw	a0,0(a0)
  40a6b4:	8ca50000 	lw	a1,0(a1)
  40a6b8:	8cc60000 	lw	a2,0(a2)
  40a6bc:	0320f809 	jalr	t9
  40a6c0:	00000000 	nop
  40a6c4:	8fbc0010 	lw	gp,16(sp)
  40a6c8:	3c190000 	lui	t9,0x0
  40a6cc:	033cc821 	addu	t9,t9,gp
  40a6d0:	8f3983a0 	lw	t9,-31840(t9)
  40a6d4:	00402025 	move	a0,v0
  40a6d8:	0320f809 	jalr	t9
  40a6dc:	00000000 	nop
  40a6e0:	8fbc0010 	lw	gp,16(sp)
  40a6e4:	0000000d 	break
