# Function: FUN_00416428
# Address: 0x00416428 - 0x004166c8
# Size: 0x2a0 (672 bytes)
# End detected by: jr ra
# GP = 0x1001db30
#


fsn.original:     file format elf32-tradbigmips


Disassembly of section .text:

00416428 <rescanDatabase+0xd2c>:
  416428:	3c1c0fc0 	lui	gp,0xfc0
  41642c:	279c7708 	addiu	gp,gp,30472
  416430:	0399e021 	addu	gp,gp,t9
  416434:	8f8e809c 	lw	t6,-32612(gp)
  416438:	27bdffe0 	addiu	sp,sp,-32
  41643c:	8dce0000 	lw	t6,0(t6)
  416440:	afbf001c 	sw	ra,28(sp)
  416444:	afbc0018 	sw	gp,24(sp)
  416448:	afa40020 	sw	a0,32(sp)
  41644c:	11c00009 	beqz	t6,416474 <rescanDatabase+0xd78>
  416450:	afa50024 	sw	a1,36(sp)
  416454:	8f84806c 	lw	a0,-32660(gp)
  416458:	8f9982c8 	lw	t9,-32056(gp)
  41645c:	8c846690 	lw	a0,26256(a0)
  416460:	0320f809 	jalr	t9
  416464:	00000000 	nop
  416468:	8fbc0018 	lw	gp,24(sp)
  41646c:	1000001e 	b	4164e8 <rescanDatabase+0xdec>
  416470:	00401825 	move	v1,v0
  416474:	8f84806c 	lw	a0,-32660(gp)
  416478:	00000000 	nop
  41647c:	8c846690 	lw	a0,26256(a0)
  416480:	00000000 	nop
  416484:	8c8f0000 	lw	t7,0(a0)
  416488:	00000000 	nop
  41648c:	25f8ffff 	addiu	t8,t7,-1
  416490:	ac980000 	sw	t8,0(a0)
  416494:	8f84806c 	lw	a0,-32660(gp)
  416498:	00000000 	nop
  41649c:	8c846690 	lw	a0,26256(a0)
  4164a0:	00000000 	nop
  4164a4:	8c990000 	lw	t9,0(a0)
  4164a8:	00000000 	nop
  4164ac:	07210008 	bgez	t9,4164d0 <rescanDatabase+0xdd4>
  4164b0:	00000000 	nop
  4164b4:	8f9982d8 	lw	t9,-32040(gp)
  4164b8:	00000000 	nop
  4164bc:	0320f809 	jalr	t9
  4164c0:	00000000 	nop
  4164c4:	8fbc0018 	lw	gp,24(sp)
  4164c8:	10000006 	b	4164e4 <rescanDatabase+0xde8>
  4164cc:	00402825 	move	a1,v0
  4164d0:	8c820004 	lw	v0,4(a0)
  4164d4:	00000000 	nop
  4164d8:	90450000 	lbu	a1,0(v0)
  4164dc:	24480001 	addiu	t0,v0,1
  4164e0:	ac880004 	sw	t0,4(a0)
  4164e4:	00a01825 	move	v1,a1
  4164e8:	24010003 	li	at,3
  4164ec:	1061000f 	beq	v1,at,41652c <rescanDatabase+0xe30>
  4164f0:	00000000 	nop
  4164f4:	8f848098 	lw	a0,-32616(gp)
  4164f8:	8f85805c 	lw	a1,-32676(gp)
  4164fc:	8f9983f8 	lw	t9,-31752(gp)
  416500:	24840020 	addiu	a0,a0,32
  416504:	0320f809 	jalr	t9
  416508:	24a5aa88 	addiu	a1,a1,-21880
  41650c:	8fbc0018 	lw	gp,24(sp)
  416510:	24040001 	li	a0,1
  416514:	8f9983a0 	lw	t9,-31840(gp)
  416518:	00000000 	nop
  41651c:	0320f809 	jalr	t9
  416520:	00000000 	nop
  416524:	8fbc0018 	lw	gp,24(sp)
  416528:	00000000 	nop
  41652c:	8f87806c 	lw	a3,-32660(gp)
  416530:	8f84806c 	lw	a0,-32660(gp)
  416534:	8f9982cc 	lw	t9,-32052(gp)
  416538:	8ce76690 	lw	a3,26256(a3)
  41653c:	24050014 	li	a1,20
  416540:	24060001 	li	a2,1
  416544:	0320f809 	jalr	t9
  416548:	24846698 	addiu	a0,a0,26264
  41654c:	8fbc0018 	lw	gp,24(sp)
  416550:	24010001 	li	at,1
  416554:	1041000f 	beq	v0,at,416594 <rescanDatabase+0xe98>
  416558:	00000000 	nop
  41655c:	8f848098 	lw	a0,-32616(gp)
  416560:	8f85805c 	lw	a1,-32676(gp)
  416564:	8f9983f8 	lw	t9,-31752(gp)
  416568:	24840020 	addiu	a0,a0,32
  41656c:	0320f809 	jalr	t9
  416570:	24a5aab4 	addiu	a1,a1,-21836
  416574:	8fbc0018 	lw	gp,24(sp)
  416578:	24040001 	li	a0,1
  41657c:	8f9983a0 	lw	t9,-31840(gp)
  416580:	00000000 	nop
  416584:	0320f809 	jalr	t9
  416588:	00000000 	nop
  41658c:	8fbc0018 	lw	gp,24(sp)
  416590:	00000000 	nop
  416594:	8f86806c 	lw	a2,-32660(gp)
  416598:	8f87806c 	lw	a3,-32660(gp)
  41659c:	8f9982cc 	lw	t9,-32052(gp)
  4165a0:	8fa40020 	lw	a0,32(sp)
  4165a4:	94c666a4 	lhu	a2,26276(a2)
  4165a8:	8ce76690 	lw	a3,26256(a3)
  4165ac:	0320f809 	jalr	t9
  4165b0:	24050001 	li	a1,1
  4165b4:	8fbc0018 	lw	gp,24(sp)
  4165b8:	00000000 	nop
  4165bc:	8f89806c 	lw	t1,-32660(gp)
  4165c0:	00000000 	nop
  4165c4:	952966a4 	lhu	t1,26276(t1)
  4165c8:	00000000 	nop
  4165cc:	1049000f 	beq	v0,t1,41660c <rescanDatabase+0xf10>
  4165d0:	00000000 	nop
  4165d4:	8f848098 	lw	a0,-32616(gp)
  4165d8:	8f85805c 	lw	a1,-32676(gp)
  4165dc:	8f9983f8 	lw	t9,-31752(gp)
  4165e0:	24840020 	addiu	a0,a0,32
  4165e4:	0320f809 	jalr	t9
  4165e8:	24a5aae0 	addiu	a1,a1,-21792
  4165ec:	8fbc0018 	lw	gp,24(sp)
  4165f0:	24040001 	li	a0,1
  4165f4:	8f9983a0 	lw	t9,-31840(gp)
  4165f8:	00000000 	nop
  4165fc:	0320f809 	jalr	t9
  416600:	00000000 	nop
  416604:	8fbc0018 	lw	gp,24(sp)
  416608:	00000000 	nop
  41660c:	8f8b806c 	lw	t3,-32660(gp)
  416610:	8faa0020 	lw	t2,32(sp)
  416614:	956b66a4 	lhu	t3,26276(t3)
  416618:	8f8d806c 	lw	t5,-32660(gp)
  41661c:	014b6021 	addu	t4,t2,t3
  416620:	a1800000 	sb	zero,0(t4)
  416624:	95ad66a6 	lhu	t5,26278(t5)
  416628:	8fa40024 	lw	a0,36(sp)
  41662c:	11a0001c 	beqz	t5,4166a0 <rescanDatabase+0xfa4>
  416630:	24050001 	li	a1,1
  416634:	8f87806c 	lw	a3,-32660(gp)
  416638:	8f9982cc 	lw	t9,-32052(gp)
  41663c:	8ce76690 	lw	a3,26256(a3)
  416640:	0320f809 	jalr	t9
  416644:	01a03025 	move	a2,t5
  416648:	8fbc0018 	lw	gp,24(sp)
  41664c:	00000000 	nop
  416650:	8f8e806c 	lw	t6,-32660(gp)
  416654:	00000000 	nop
  416658:	95ce66a6 	lhu	t6,26278(t6)
  41665c:	00000000 	nop
  416660:	104e000f 	beq	v0,t6,4166a0 <rescanDatabase+0xfa4>
  416664:	00000000 	nop
  416668:	8f848098 	lw	a0,-32616(gp)
  41666c:	8f85805c 	lw	a1,-32676(gp)
  416670:	8f9983f8 	lw	t9,-31752(gp)
  416674:	24840020 	addiu	a0,a0,32
  416678:	0320f809 	jalr	t9
  41667c:	24a5ab10 	addiu	a1,a1,-21744
  416680:	8fbc0018 	lw	gp,24(sp)
  416684:	24040001 	li	a0,1
  416688:	8f9983a0 	lw	t9,-31840(gp)
  41668c:	00000000 	nop
  416690:	0320f809 	jalr	t9
  416694:	00000000 	nop
  416698:	8fbc0018 	lw	gp,24(sp)
  41669c:	00000000 	nop
  4166a0:	8f98806c 	lw	t8,-32660(gp)
  4166a4:	8faf0024 	lw	t7,36(sp)
  4166a8:	971866a6 	lhu	t8,26278(t8)
  4166ac:	8f82806c 	lw	v0,-32660(gp)
  4166b0:	01f8c821 	addu	t9,t7,t8
  4166b4:	a3200000 	sb	zero,0(t9)
  4166b8:	8fbf001c 	lw	ra,28(sp)
  4166bc:	27bd0020 	addiu	sp,sp,32
  4166c0:	03e00008 	jr	ra
  4166c4:	24426698 	addiu	v0,v0,26264
