# Function: rgb_to_hls
# Address: 0x004390ac - 0x00439360
# Size: 0x2b4 (692 bytes)
# End detected by: jr ra
# GP = 0x1001db30
#


fsn.original:     file format elf32-tradbigmips


Disassembly of section .text:

004390ac <rgb_to_hls>:
  4390ac:	3c1c0fbe 	lui	gp,0xfbe
  4390b0:	279c4a84 	addiu	gp,gp,19076
  4390b4:	0399e021 	addu	gp,gp,t9
  4390b8:	27bdfff0 	addiu	sp,sp,-16
  4390bc:	c7a50020 	lwc1	$f5,32(sp)
  4390c0:	c7a40024 	lwc1	$f4,36(sp)
  4390c4:	46207020 	cvt.s.d	$f0,$f14
  4390c8:	e7b50008 	swc1	$f21,8(sp)
  4390cc:	462020a0 	cvt.s.d	$f2,$f4
  4390d0:	e7b4000c 	swc1	$f20,12(sp)
  4390d4:	4600103c 	c.lt.s	$f2,$f0
  4390d8:	e7ad0010 	swc1	$f13,16(sp)
  4390dc:	45000003 	bc1f	4390ec <rgb_to_hls+0x40>
  4390e0:	e7ac0014 	swc1	$f12,20(sp)
  4390e4:	10000002 	b	4390f0 <rgb_to_hls+0x44>
  4390e8:	46000386 	mov.s	$f14,$f0
  4390ec:	46001386 	mov.s	$f14,$f2
  4390f0:	c7a70010 	lwc1	$f7,16(sp)
  4390f4:	c7a60014 	lwc1	$f6,20(sp)
  4390f8:	3c014000 	lui	at,0x4000
  4390fc:	46203320 	cvt.s.d	$f12,$f6
  439100:	44814000 	mtc1	at,$f8
  439104:	460c703c 	c.lt.s	$f14,$f12
  439108:	00000000 	nop
  43910c:	45000003 	bc1f	43911c <rgb_to_hls+0x70>
  439110:	00000000 	nop
  439114:	10000009 	b	43913c <rgb_to_hls+0x90>
  439118:	46006406 	mov.s	$f16,$f12
  43911c:	4600103c 	c.lt.s	$f2,$f0
  439120:	00000000 	nop
  439124:	45000003 	bc1f	439134 <rgb_to_hls+0x88>
  439128:	00000000 	nop
  43912c:	10000002 	b	439138 <rgb_to_hls+0x8c>
  439130:	46000386 	mov.s	$f14,$f0
  439134:	46001386 	mov.s	$f14,$f2
  439138:	46007406 	mov.s	$f16,$f14
  43913c:	4602003c 	c.lt.s	$f0,$f2
  439140:	3c013fe0 	lui	at,0x3fe0
  439144:	45000003 	bc1f	439154 <rgb_to_hls+0xa8>
  439148:	00000000 	nop
  43914c:	10000002 	b	439158 <rgb_to_hls+0xac>
  439150:	46000386 	mov.s	$f14,$f0
  439154:	46001386 	mov.s	$f14,$f2
  439158:	460e603c 	c.lt.s	$f12,$f14
  43915c:	00000000 	nop
  439160:	45000003 	bc1f	439170 <rgb_to_hls+0xc4>
  439164:	00000000 	nop
  439168:	10000009 	b	439190 <rgb_to_hls+0xe4>
  43916c:	46006486 	mov.s	$f18,$f12
  439170:	4602003c 	c.lt.s	$f0,$f2
  439174:	00000000 	nop
  439178:	45000003 	bc1f	439188 <rgb_to_hls+0xdc>
  43917c:	00000000 	nop
  439180:	10000002 	b	43918c <rgb_to_hls+0xe0>
  439184:	46000386 	mov.s	$f14,$f0
  439188:	46001386 	mov.s	$f14,$f2
  43918c:	46007486 	mov.s	$f18,$f14
  439190:	46109380 	add.s	$f14,$f18,$f16
  439194:	8fa2002c 	lw	v0,44(sp)
  439198:	46087283 	div.s	$f10,$f14,$f8
  43919c:	46128032 	c.eq.s	$f16,$f18
  4391a0:	00000000 	nop
  4391a4:	45000008 	bc1f	4391c8 <rgb_to_hls+0x11c>
  4391a8:	e44a0000 	swc1	$f10,0(v0)
  4391ac:	8fa20028 	lw	v0,40(sp)
  4391b0:	44800000 	mtc1	zero,$f0
  4391b4:	8fae0030 	lw	t6,48(sp)
  4391b8:	00000000 	nop
  4391bc:	e5c00000 	swc1	$f0,0(t6)
  4391c0:	10000063 	b	439350 <rgb_to_hls+0x2a4>
  4391c4:	e4400000 	swc1	$f0,0(v0)
  4391c8:	c4460000 	lwc1	$f6,0(v0)
  4391cc:	44812800 	mtc1	at,$f5
  4391d0:	44802000 	mtc1	zero,$f4
  4391d4:	46003221 	cvt.d.s	$f8,$f6
  4391d8:	4624403e 	c.le.d	$f8,$f4
  4391dc:	3c014000 	lui	at,0x4000
  4391e0:	45000006 	bc1f	4391fc <rgb_to_hls+0x150>
  4391e4:	00000000 	nop
  4391e8:	46128501 	sub.s	$f20,$f16,$f18
  4391ec:	8faf0030 	lw	t7,48(sp)
  4391f0:	460ea283 	div.s	$f10,$f20,$f14
  4391f4:	10000009 	b	43921c <rgb_to_hls+0x170>
  4391f8:	e5ea0000 	swc1	$f10,0(t7)
  4391fc:	44813000 	mtc1	at,$f6
  439200:	46128501 	sub.s	$f20,$f16,$f18
  439204:	8fb80030 	lw	t8,48(sp)
  439208:	46103101 	sub.s	$f4,$f6,$f16
  43920c:	46122201 	sub.s	$f8,$f4,$f18
  439210:	00000000 	nop
  439214:	4608a283 	div.s	$f10,$f20,$f8
  439218:	e70a0000 	swc1	$f10,0(t8)
  43921c:	46106032 	c.eq.s	$f12,$f16
  439220:	00000000 	nop
  439224:	4500000b 	bc1f	439254 <rgb_to_hls+0x1a8>
  439228:	00000000 	nop
  43922c:	46028181 	sub.s	$f6,$f16,$f2
  439230:	8fa20028 	lw	v0,40(sp)
  439234:	46008201 	sub.s	$f8,$f16,$f0
  439238:	00000000 	nop
  43923c:	46144283 	div.s	$f10,$f8,$f20
  439240:	00000000 	nop
  439244:	46143103 	div.s	$f4,$f6,$f20
  439248:	460a2181 	sub.s	$f6,$f4,$f10
  43924c:	1000001c 	b	4392c0 <rgb_to_hls+0x214>
  439250:	e4460000 	swc1	$f6,0(v0)
  439254:	46100032 	c.eq.s	$f0,$f16
  439258:	00000000 	nop
  43925c:	4500000d 	bc1f	439294 <rgb_to_hls+0x1e8>
  439260:	00000000 	nop
  439264:	460c8101 	sub.s	$f4,$f16,$f12
  439268:	3c014000 	lui	at,0x4000
  43926c:	46142283 	div.s	$f10,$f4,$f20
  439270:	44814000 	mtc1	at,$f8
  439274:	46028101 	sub.s	$f4,$f16,$f2
  439278:	8fa20028 	lw	v0,40(sp)
  43927c:	460a4180 	add.s	$f6,$f8,$f10
  439280:	00000000 	nop
  439284:	46142203 	div.s	$f8,$f4,$f20
  439288:	46083281 	sub.s	$f10,$f6,$f8
  43928c:	1000000c 	b	4392c0 <rgb_to_hls+0x214>
  439290:	e44a0000 	swc1	$f10,0(v0)
  439294:	46008181 	sub.s	$f6,$f16,$f0
  439298:	3c014080 	lui	at,0x4080
  43929c:	46143203 	div.s	$f8,$f6,$f20
  4392a0:	44812000 	mtc1	at,$f4
  4392a4:	460c8181 	sub.s	$f6,$f16,$f12
  4392a8:	8fa20028 	lw	v0,40(sp)
  4392ac:	46082280 	add.s	$f10,$f4,$f8
  4392b0:	00000000 	nop
  4392b4:	46143103 	div.s	$f4,$f6,$f20
  4392b8:	46045201 	sub.s	$f8,$f10,$f4
  4392bc:	e4480000 	swc1	$f8,0(v0)
  4392c0:	c4460000 	lwc1	$f6,0(v0)
  4392c4:	3c01404e 	lui	at,0x404e
  4392c8:	44812800 	mtc1	at,$f5
  4392cc:	44802000 	mtc1	zero,$f4
  4392d0:	460032a1 	cvt.d.s	$f10,$f6
  4392d4:	46245202 	mul.d	$f8,$f10,$f4
  4392d8:	44802000 	mtc1	zero,$f4
  4392dc:	44802800 	mtc1	zero,$f5
  4392e0:	462041a0 	cvt.s.d	$f6,$f8
  4392e4:	e4460000 	swc1	$f6,0(v0)
  4392e8:	c44a0000 	lwc1	$f10,0(v0)
  4392ec:	00000000 	nop
  4392f0:	46005021 	cvt.d.s	$f0,$f10
  4392f4:	4624003c 	c.lt.d	$f0,$f4
  4392f8:	00000000 	nop
  4392fc:	4500000c 	bc1f	439330 <rgb_to_hls+0x284>
  439300:	00000000 	nop
  439304:	8f81805c 	lw	at,-32676(gp)
  439308:	00000000 	nop
  43930c:	c4295ac0 	lwc1	$f9,23232(at)
  439310:	c4285ac4 	lwc1	$f8,23236(at)
  439314:	00000000 	nop
  439318:	46280180 	add.d	$f6,$f0,$f8
  43931c:	462032a0 	cvt.s.d	$f10,$f6
  439320:	e44a0000 	swc1	$f10,0(v0)
  439324:	c4440000 	lwc1	$f4,0(v0)
  439328:	00000000 	nop
  43932c:	46002021 	cvt.d.s	$f0,$f4
  439330:	8f81805c 	lw	at,-32676(gp)
  439334:	00000000 	nop
  439338:	c4295ac8 	lwc1	$f9,23240(at)
  43933c:	c4285acc 	lwc1	$f8,23244(at)
  439340:	00000000 	nop
  439344:	46280183 	div.d	$f6,$f0,$f8
  439348:	462032a0 	cvt.s.d	$f10,$f6
  43934c:	e44a0000 	swc1	$f10,0(v0)
  439350:	c7b50008 	lwc1	$f21,8(sp)
  439354:	c7b4000c 	lwc1	$f20,12(sp)
  439358:	03e00008 	jr	ra
  43935c:	27bd0010 	addiu	sp,sp,16
