# Function: FUN_00429640
# Address: 0x00429640 - 0x00429a3c
# Size: 0x3fc (1020 bytes)
# End detected by: jr ra
# GP = 0x1001db30
#


fsn.original:     file format elf32-tradbigmips


Disassembly of section .text:

00429640 <baseLocateHighlight+0xc>:
  429640:	27bdffd8 	addiu	sp,sp,-40
  429644:	afbf001c 	sw	ra,28(sp)
  429648:	14800002 	bnez	a0,429654 <baseLocateHighlight+0x20>
  42964c:	afbc0018 	sw	gp,24(sp)
  429650:	00c02025 	move	a0,a2
  429654:	8f828068 	lw	v0,-32664(gp)
  429658:	00000000 	nop
  42965c:	24427994 	addiu	v0,v0,31124
  429660:	8c4e0000 	lw	t6,0(v0)
  429664:	00000000 	nop
  429668:	14ae0007 	bne	a1,t6,429688 <baseLocateHighlight+0x54>
  42966c:	00000000 	nop
  429670:	8f8f8068 	lw	t7,-32664(gp)
  429674:	00000000 	nop
  429678:	8def7990 	lw	t7,31120(t7)
  42967c:	00000000 	nop
  429680:	108f00eb 	beq	a0,t7,429a30 <baseLocateHighlight+0x3fc>
  429684:	8fbf001c 	lw	ra,28(sp)
  429688:	8f818068 	lw	at,-32664(gp)
  42968c:	afa40028 	sw	a0,40(sp)
  429690:	ac247990 	sw	a0,31120(at)
  429694:	ac450000 	sw	a1,0(v0)
  429698:	8f998520 	lw	t9,-31456(gp)
  42969c:	afa5002c 	sw	a1,44(sp)
  4296a0:	0320f809 	jalr	t9
  4296a4:	00000000 	nop
  4296a8:	8fbc0018 	lw	gp,24(sp)
  4296ac:	00002025 	move	a0,zero
  4296b0:	8f998304 	lw	t9,-31996(gp)
  4296b4:	00000000 	nop
  4296b8:	0320f809 	jalr	t9
  4296bc:	00000000 	nop
  4296c0:	8fbc0018 	lw	gp,24(sp)
  4296c4:	00000000 	nop
  4296c8:	8f998308 	lw	t9,-31992(gp)
  4296cc:	00000000 	nop
  4296d0:	0320f809 	jalr	t9
  4296d4:	00000000 	nop
  4296d8:	8fbc0018 	lw	gp,24(sp)
  4296dc:	00000000 	nop
  4296e0:	8f8489fc 	lw	a0,-30212(gp)
  4296e4:	8f998304 	lw	t9,-31996(gp)
  4296e8:	94840002 	lhu	a0,2(a0)
  4296ec:	0320f809 	jalr	t9
  4296f0:	00000000 	nop
  4296f4:	8fbc0018 	lw	gp,24(sp)
  4296f8:	00000000 	nop
  4296fc:	8f848a24 	lw	a0,-30172(gp)
  429700:	8f9981f4 	lw	t9,-32268(gp)
  429704:	84840026 	lh	a0,38(a0)
  429708:	0320f809 	jalr	t9
  42970c:	00000000 	nop
  429710:	8fbc0018 	lw	gp,24(sp)
  429714:	00002025 	move	a0,zero
  429718:	8f998334 	lw	t9,-31948(gp)
  42971c:	00000000 	nop
  429720:	0320f809 	jalr	t9
  429724:	00000000 	nop
  429728:	8fbc0018 	lw	gp,24(sp)
  42972c:	00000000 	nop
  429730:	8f9984b8 	lw	t9,-31560(gp)
  429734:	00000000 	nop
  429738:	0320f809 	jalr	t9
  42973c:	00000000 	nop
  429740:	8fbc0018 	lw	gp,24(sp)
  429744:	3c013f80 	lui	at,0x3f80
  429748:	8f98897c 	lw	t8,-30340(gp)
  42974c:	44817000 	mtc1	at,$f14
  429750:	8f180000 	lw	t8,0(t8)
  429754:	3c013ff0 	lui	at,0x3ff0
  429758:	c7060034 	lwc1	$f6,52(t8)
  42975c:	44812800 	mtc1	at,$f5
  429760:	44802000 	mtc1	zero,$f4
  429764:	46003221 	cvt.d.s	$f8,$f6
  429768:	00000000 	nop
  42976c:	46282283 	div.d	$f10,$f4,$f8
  429770:	8f998494 	lw	t9,-31596(gp)
  429774:	44067000 	mfc1	a2,$f14
  429778:	0320f809 	jalr	t9
  42977c:	46205320 	cvt.s.d	$f12,$f10
  429780:	8fbc0018 	lw	gp,24(sp)
  429784:	24050078 	li	a1,120
  429788:	8f99897c 	lw	t9,-30340(gp)
  42978c:	00000000 	nop
  429790:	8f390000 	lw	t9,0(t9)
  429794:	00000000 	nop
  429798:	8724000e 	lh	a0,14(t9)
  42979c:	8f998498 	lw	t9,-31592(gp)
  4297a0:	00000000 	nop
  4297a4:	0320f809 	jalr	t9
  4297a8:	00000000 	nop
  4297ac:	8fbc0018 	lw	gp,24(sp)
  4297b0:	2405007a 	li	a1,122
  4297b4:	8f88897c 	lw	t0,-30340(gp)
  4297b8:	8f998498 	lw	t9,-31592(gp)
  4297bc:	8d080000 	lw	t0,0(t0)
  4297c0:	00000000 	nop
  4297c4:	8504000c 	lh	a0,12(t0)
  4297c8:	0320f809 	jalr	t9
  4297cc:	00000000 	nop
  4297d0:	8fbc0018 	lw	gp,24(sp)
  4297d4:	00000000 	nop
  4297d8:	8f82897c 	lw	v0,-30340(gp)
  4297dc:	00000000 	nop
  4297e0:	8c420000 	lw	v0,0(v0)
  4297e4:	00000000 	nop
  4297e8:	8c49003c 	lw	t1,60(v0)
  4297ec:	00000000 	nop
  4297f0:	15200021 	bnez	t1,429878 <baseLocateHighlight+0x244>
  4297f4:	00000000 	nop
  4297f8:	c4500018 	lwc1	$f16,24(v0)
  4297fc:	c4460020 	lwc1	$f6,32(v0)
  429800:	460084a1 	cvt.d.s	$f18,$f16
  429804:	46003121 	cvt.d.s	$f4,$f6
  429808:	46249202 	mul.d	$f8,$f18,$f4
  42980c:	c44a0008 	lwc1	$f10,8(v0)
  429810:	8f838a24 	lw	v1,-30172(gp)
  429814:	46005421 	cvt.d.s	$f16,$f10
  429818:	c4520004 	lwc1	$f18,4(v0)
  42981c:	46304182 	mul.d	$f6,$f8,$f16
  429820:	c4680108 	lwc1	$f8,264(v1)
  429824:	46009121 	cvt.d.s	$f4,$f18
  429828:	46004421 	cvt.d.s	$f16,$f8
  42982c:	8f99849c 	lw	t9,-31588(gp)
  429830:	46262281 	sub.d	$f10,$f4,$f6
  429834:	c46c0104 	lwc1	$f12,260(v1)
  429838:	46305483 	div.d	$f18,$f10,$f16
  42983c:	0320f809 	jalr	t9
  429840:	462093a0 	cvt.s.d	$f14,$f18
  429844:	8fbc0018 	lw	gp,24(sp)
  429848:	3c013f80 	lui	at,0x3f80
  42984c:	44817000 	mtc1	at,$f14
  429850:	8f998494 	lw	t9,-31596(gp)
  429854:	44067000 	mfc1	a2,$f14
  429858:	0320f809 	jalr	t9
  42985c:	46000306 	mov.s	$f12,$f0
  429860:	8fbc0018 	lw	gp,24(sp)
  429864:	00000000 	nop
  429868:	8f82897c 	lw	v0,-30340(gp)
  42986c:	00000000 	nop
  429870:	8c420000 	lw	v0,0(v0)
  429874:	00000000 	nop
  429878:	c4440008 	lwc1	$f4,8(v0)
  42987c:	c44c0000 	lwc1	$f12,0(v0)
  429880:	c44e0004 	lwc1	$f14,4(v0)
  429884:	8f9984a0 	lw	t9,-31584(gp)
  429888:	46002187 	neg.s	$f6,$f4
  42988c:	44063000 	mfc1	a2,$f6
  429890:	46006307 	neg.s	$f12,$f12
  429894:	0320f809 	jalr	t9
  429898:	46007387 	neg.s	$f14,$f14
  42989c:	8faa002c 	lw	t2,44(sp)
  4298a0:	8fbc0018 	lw	gp,24(sp)
  4298a4:	11400009 	beqz	t2,4298cc <baseLocateHighlight+0x298>
  4298a8:	8fab0028 	lw	t3,40(sp)
  4298ac:	8f998700 	lw	t9,-30976(gp)
  4298b0:	8fa40028 	lw	a0,40(sp)
  4298b4:	0320f809 	jalr	t9
  4298b8:	01402825 	move	a1,t2
  4298bc:	8fbc0018 	lw	gp,24(sp)
  4298c0:	1000000b 	b	4298f0 <baseLocateHighlight+0x2bc>
  4298c4:	00000000 	nop
  4298c8:	8fab0028 	lw	t3,40(sp)
  4298cc:	00000000 	nop
  4298d0:	11600007 	beqz	t3,4298f0 <baseLocateHighlight+0x2bc>
  4298d4:	00000000 	nop
  4298d8:	8f9986f4 	lw	t9,-30988(gp)
  4298dc:	01602025 	move	a0,t3
  4298e0:	0320f809 	jalr	t9
  4298e4:	00000000 	nop
  4298e8:	8fbc0018 	lw	gp,24(sp)
  4298ec:	00000000 	nop
  4298f0:	8f9984d8 	lw	t9,-31528(gp)
  4298f4:	00000000 	nop
  4298f8:	0320f809 	jalr	t9
  4298fc:	00000000 	nop
  429900:	8fbc0018 	lw	gp,24(sp)
  429904:	24040001 	li	a0,1
  429908:	8f9981f4 	lw	t9,-32268(gp)
  42990c:	00000000 	nop
  429910:	0320f809 	jalr	t9
  429914:	00000000 	nop
  429918:	8fa50028 	lw	a1,40(sp)
  42991c:	8fbc0018 	lw	gp,24(sp)
  429920:	10a00026 	beqz	a1,4299bc <baseLocateHighlight+0x388>
  429924:	00000000 	nop
  429928:	8f99857c 	lw	t9,-31364(gp)
  42992c:	00002025 	move	a0,zero
  429930:	0320f809 	jalr	t9
  429934:	00000000 	nop
  429938:	8fac002c 	lw	t4,44(sp)
  42993c:	8fbc0018 	lw	gp,24(sp)
  429940:	1180000f 	beqz	t4,429980 <baseLocateHighlight+0x34c>
  429944:	00402025 	move	a0,v0
  429948:	8f99831c 	lw	t9,-31972(gp)
  42994c:	8d850000 	lw	a1,0(t4)
  429950:	0320f809 	jalr	t9
  429954:	afa20024 	sw	v0,36(sp)
  429958:	8fbc0018 	lw	gp,24(sp)
  42995c:	8fa40024 	lw	a0,36(sp)
  429960:	8f998020 	lw	t9,-32736(gp)
  429964:	00000000 	nop
  429968:	273993e8 	addiu	t9,t9,-27672
  42996c:	0320f809 	jalr	t9
  429970:	00000000 	nop
  429974:	8fbc0018 	lw	gp,24(sp)
  429978:	10000017 	b	4299d8 <baseLocateHighlight+0x3a4>
  42997c:	00000000 	nop
  429980:	8fad0028 	lw	t5,40(sp)
  429984:	00000000 	nop
  429988:	8dae0074 	lw	t6,116(t5)
  42998c:	00000000 	nop
  429990:	000ec080 	sll	t8,t6,0x2
  429994:	07000010 	bltz	t8,4299d8 <baseLocateHighlight+0x3a4>
  429998:	00000000 	nop
  42999c:	8f998020 	lw	t9,-32736(gp)
  4299a0:	00000000 	nop
  4299a4:	273993e8 	addiu	t9,t9,-27672
  4299a8:	0320f809 	jalr	t9
  4299ac:	00000000 	nop
  4299b0:	8fbc0018 	lw	gp,24(sp)
  4299b4:	10000008 	b	4299d8 <baseLocateHighlight+0x3a4>
  4299b8:	00000000 	nop
  4299bc:	8f998020 	lw	t9,-32736(gp)
  4299c0:	00000000 	nop
  4299c4:	27399464 	addiu	t9,t9,-27548
  4299c8:	0320f809 	jalr	t9
  4299cc:	00000000 	nop
  4299d0:	8fbc0018 	lw	gp,24(sp)
  4299d4:	00000000 	nop
  4299d8:	8f998334 	lw	t9,-31948(gp)
  4299dc:	24040001 	li	a0,1
  4299e0:	0320f809 	jalr	t9
  4299e4:	00000000 	nop
  4299e8:	8fa40028 	lw	a0,40(sp)
  4299ec:	8fbc0018 	lw	gp,24(sp)
  4299f0:	10800008 	beqz	a0,429a14 <baseLocateHighlight+0x3e0>
  4299f4:	00000000 	nop
  4299f8:	8f99868c 	lw	t9,-31092(gp)
  4299fc:	00000000 	nop
  429a00:	0320f809 	jalr	t9
  429a04:	00000000 	nop
  429a08:	8fbc0018 	lw	gp,24(sp)
  429a0c:	10000008 	b	429a30 <baseLocateHighlight+0x3fc>
  429a10:	8fbf001c 	lw	ra,28(sp)
  429a14:	8f99867c 	lw	t9,-31108(gp)
  429a18:	00000000 	nop
  429a1c:	0320f809 	jalr	t9
  429a20:	00000000 	nop
  429a24:	8fbc0018 	lw	gp,24(sp)
  429a28:	00000000 	nop
  429a2c:	8fbf001c 	lw	ra,28(sp)
  429a30:	27bd0028 	addiu	sp,sp,40
  429a34:	03e00008 	jr	ra
  429a38:	00000000 	nop
