# Function: FUN_00411230
# Address: 0x00411230 - 0x00411578
# Size: 0x348 (840 bytes)
# End detected by: jr ra
# GP = 0x1001db30
#


fsn.original:     file format elf32-tradbigmips


Disassembly of section .text:

00411230 <fileerror+0x1a8>:
  411230:	3c1c0fc1 	lui	gp,0xfc1
  411234:	279cc900 	addiu	gp,gp,-14080
  411238:	0399e021 	addu	gp,gp,t9
  41123c:	8f8e8068 	lw	t6,-32664(gp)
  411240:	27bdffa0 	addiu	sp,sp,-96
  411244:	91ce0170 	lbu	t6,368(t6)
  411248:	afbf001c 	sw	ra,28(sp)
  41124c:	15c00015 	bnez	t6,4112a4 <fileerror+0x21c>
  411250:	afbc0018 	sw	gp,24(sp)
  411254:	8f99876c 	lw	t9,-30868(gp)
  411258:	24040001 	li	a0,1
  41125c:	0320f809 	jalr	t9
  411260:	00000000 	nop
  411264:	8fbc0018 	lw	gp,24(sp)
  411268:	00000000 	nop
  41126c:	8f998018 	lw	t9,-32744(gp)
  411270:	00000000 	nop
  411274:	2739a7ec 	addiu	t9,t9,-22548
  411278:	0320f809 	jalr	t9
  41127c:	00000000 	nop
  411280:	8fbc0018 	lw	gp,24(sp)
  411284:	240f0001 	li	t7,1
  411288:	8f818068 	lw	at,-32664(gp)
  41128c:	8f99876c 	lw	t9,-30868(gp)
  411290:	24040001 	li	a0,1
  411294:	0320f809 	jalr	t9
  411298:	a02f0170 	sb	t7,368(at)
  41129c:	8fbc0018 	lw	gp,24(sp)
  4112a0:	00000000 	nop
  4112a4:	27b9005e 	addiu	t9,sp,94
  4112a8:	8f9880a4 	lw	t8,-32604(gp)
  4112ac:	8f84806c 	lw	a0,-32660(gp)
  4112b0:	afb90038 	sw	t9,56(sp)
  4112b4:	8f998364 	lw	t9,-31900(gp)
  4112b8:	271800ea 	addiu	t8,t8,234
  4112bc:	8c84664c 	lw	a0,26188(a0)
  4112c0:	afb80034 	sw	t8,52(sp)
  4112c4:	27a50034 	addiu	a1,sp,52
  4112c8:	0320f809 	jalr	t9
  4112cc:	24060001 	li	a2,1
  4112d0:	8fbc0018 	lw	gp,24(sp)
  4112d4:	97a2005e 	lhu	v0,94(sp)
  4112d8:	8f8880a0 	lw	t0,-32608(gp)
  4112dc:	8f8a80a0 	lw	t2,-32608(gp)
  4112e0:	8f8b8988 	lw	t3,-30328(gp)
  4112e4:	00024842 	srl	t1,v0,0x1
  4112e8:	8d6b0000 	lw	t3,0(t3)
  4112ec:	2508220a 	addiu	t0,t0,8714
  4112f0:	254a21fe 	addiu	t2,t2,8702
  4112f4:	8f998340 	lw	t9,-31936(gp)
  4112f8:	afa80034 	sw	t0,52(sp)
  4112fc:	afa90038 	sw	t1,56(sp)
  411300:	afaa003c 	sw	t2,60(sp)
  411304:	afa90040 	sw	t1,64(sp)
  411308:	8d64000c 	lw	a0,12(t3)
  41130c:	27a50034 	addiu	a1,sp,52
  411310:	0320f809 	jalr	t9
  411314:	24060002 	li	a2,2
  411318:	8fbc0018 	lw	gp,24(sp)
  41131c:	00000000 	nop
  411320:	8f8c8988 	lw	t4,-30328(gp)
  411324:	8f998388 	lw	t9,-31864(gp)
  411328:	8d8c0000 	lw	t4,0(t4)
  41132c:	00000000 	nop
  411330:	8d84000c 	lw	a0,12(t4)
  411334:	0320f809 	jalr	t9
  411338:	00000000 	nop
  41133c:	8fbc0018 	lw	gp,24(sp)
  411340:	240e0001 	li	t6,1
  411344:	8f8d80a0 	lw	t5,-32608(gp)
  411348:	8f8f80a0 	lw	t7,-32608(gp)
  41134c:	8f998988 	lw	t9,-30328(gp)
  411350:	241803e8 	li	t8,1000
  411354:	8f390000 	lw	t9,0(t9)
  411358:	25ad220a 	addiu	t5,t5,8714
  41135c:	25ef21fe 	addiu	t7,t7,8702
  411360:	afad0034 	sw	t5,52(sp)
  411364:	afae0038 	sw	t6,56(sp)
  411368:	afaf003c 	sw	t7,60(sp)
  41136c:	afb80040 	sw	t8,64(sp)
  411370:	8f24000c 	lw	a0,12(t9)
  411374:	8f998340 	lw	t9,-31936(gp)
  411378:	27a50034 	addiu	a1,sp,52
  41137c:	0320f809 	jalr	t9
  411380:	24060002 	li	a2,2
  411384:	8fbc0018 	lw	gp,24(sp)
  411388:	24080001 	li	t0,1
  41138c:	8f898980 	lw	t1,-30336(gp)
  411390:	8f8a8988 	lw	t2,-30328(gp)
  411394:	8d290000 	lw	t1,0(t1)
  411398:	00000000 	nop
  41139c:	a1280c51 	sb	t0,3153(t1)
  4113a0:	8d4a0000 	lw	t2,0(t2)
  4113a4:	8f9983fc 	lw	t9,-31748(gp)
  4113a8:	8d440028 	lw	a0,40(t2)
  4113ac:	0320f809 	jalr	t9
  4113b0:	00000000 	nop
  4113b4:	8fbc0018 	lw	gp,24(sp)
  4113b8:	afa20028 	sw	v0,40(sp)
  4113bc:	8f8b8988 	lw	t3,-30328(gp)
  4113c0:	8f998368 	lw	t9,-31896(gp)
  4113c4:	8d6b0000 	lw	t3,0(t3)
  4113c8:	00000000 	nop
  4113cc:	8d640028 	lw	a0,40(t3)
  4113d0:	0320f809 	jalr	t9
  4113d4:	00000000 	nop
  4113d8:	8fbc0018 	lw	gp,24(sp)
  4113dc:	8fa40028 	lw	a0,40(sp)
  4113e0:	8f998144 	lw	t9,-32444(gp)
  4113e4:	00402825 	move	a1,v0
  4113e8:	0320f809 	jalr	t9
  4113ec:	00000000 	nop
  4113f0:	8fbc0018 	lw	gp,24(sp)
  4113f4:	00000000 	nop
  4113f8:	8f8c8984 	lw	t4,-30332(gp)
  4113fc:	8f998388 	lw	t9,-31864(gp)
  411400:	8d8c0000 	lw	t4,0(t4)
  411404:	00000000 	nop
  411408:	8d840024 	lw	a0,36(t4)
  41140c:	0320f809 	jalr	t9
  411410:	00000000 	nop
  411414:	8fbc0018 	lw	gp,24(sp)
  411418:	00000000 	nop
  41141c:	8f8d8984 	lw	t5,-30332(gp)
  411420:	8f998368 	lw	t9,-31896(gp)
  411424:	8dad0000 	lw	t5,0(t5)
  411428:	00000000 	nop
  41142c:	8da40024 	lw	a0,36(t5)
  411430:	0320f809 	jalr	t9
  411434:	00000000 	nop
  411438:	8fbc0018 	lw	gp,24(sp)
  41143c:	00402825 	move	a1,v0
  411440:	8f848a04 	lw	a0,-30204(gp)
  411444:	8f99817c 	lw	t9,-32388(gp)
  411448:	8c840000 	lw	a0,0(a0)
  41144c:	0320f809 	jalr	t9
  411450:	00000000 	nop
  411454:	8fbc0018 	lw	gp,24(sp)
  411458:	00000000 	nop
  41145c:	8f8e8984 	lw	t6,-30332(gp)
  411460:	8f9983fc 	lw	t9,-31748(gp)
  411464:	8dce0000 	lw	t6,0(t6)
  411468:	00000000 	nop
  41146c:	8dc40028 	lw	a0,40(t6)
  411470:	0320f809 	jalr	t9
  411474:	00000000 	nop
  411478:	8fbc0018 	lw	gp,24(sp)
  41147c:	afa20028 	sw	v0,40(sp)
  411480:	8f8f8984 	lw	t7,-30332(gp)
  411484:	8f998368 	lw	t9,-31896(gp)
  411488:	8def0000 	lw	t7,0(t7)
  41148c:	00000000 	nop
  411490:	8de40028 	lw	a0,40(t7)
  411494:	0320f809 	jalr	t9
  411498:	00000000 	nop
  41149c:	8fbc0018 	lw	gp,24(sp)
  4114a0:	8fa40028 	lw	a0,40(sp)
  4114a4:	8f9981b0 	lw	t9,-32336(gp)
  4114a8:	00402825 	move	a1,v0
  4114ac:	0320f809 	jalr	t9
  4114b0:	00000000 	nop
  4114b4:	8fbc0018 	lw	gp,24(sp)
  4114b8:	00000000 	nop
  4114bc:	8f988988 	lw	t8,-30328(gp)
  4114c0:	8f998388 	lw	t9,-31864(gp)
  4114c4:	8f180000 	lw	t8,0(t8)
  4114c8:	00000000 	nop
  4114cc:	8f040024 	lw	a0,36(t8)
  4114d0:	0320f809 	jalr	t9
  4114d4:	00000000 	nop
  4114d8:	8fbc0018 	lw	gp,24(sp)
  4114dc:	00000000 	nop
  4114e0:	8f998988 	lw	t9,-30328(gp)
  4114e4:	00000000 	nop
  4114e8:	8f390000 	lw	t9,0(t9)
  4114ec:	00000000 	nop
  4114f0:	8f240024 	lw	a0,36(t9)
  4114f4:	8f998368 	lw	t9,-31896(gp)
  4114f8:	00000000 	nop
  4114fc:	0320f809 	jalr	t9
  411500:	00000000 	nop
  411504:	8fbc0018 	lw	gp,24(sp)
  411508:	00402825 	move	a1,v0
  41150c:	8f848a04 	lw	a0,-30204(gp)
  411510:	8f99817c 	lw	t9,-32388(gp)
  411514:	8c840000 	lw	a0,0(a0)
  411518:	0320f809 	jalr	t9
  41151c:	00000000 	nop
  411520:	8fbc0018 	lw	gp,24(sp)
  411524:	24040001 	li	a0,1
  411528:	8f99876c 	lw	t9,-30868(gp)
  41152c:	00000000 	nop
  411530:	0320f809 	jalr	t9
  411534:	00000000 	nop
  411538:	8fbc0018 	lw	gp,24(sp)
  41153c:	00000000 	nop
  411540:	8f99862c 	lw	t9,-31188(gp)
  411544:	00000000 	nop
  411548:	0320f809 	jalr	t9
  41154c:	00000000 	nop
  411550:	8fbc0018 	lw	gp,24(sp)
  411554:	24040001 	li	a0,1
  411558:	8f99876c 	lw	t9,-30868(gp)
  41155c:	00000000 	nop
  411560:	0320f809 	jalr	t9
  411564:	00000000 	nop
  411568:	8fbf001c 	lw	ra,28(sp)
  41156c:	8fbc0018 	lw	gp,24(sp)
  411570:	03e00008 	jr	ra
  411574:	27bd0060 	addiu	sp,sp,96
