# Function: rgb_to_hsv
# Address: 0x00439360 - 0x0043955c
# Size: 0x1fc (508 bytes)
# End detected by: jr ra
# GP = 0x1001db30
#


fsn.original:     file format elf32-tradbigmips


Disassembly of section .text:

00439360 <rgb_to_hsv>:
  439360:	3c1c0fbe 	lui	gp,0xfbe
  439364:	279c47d0 	addiu	gp,gp,18384
  439368:	0399e021 	addu	gp,gp,t9
  43936c:	462064a0 	cvt.s.d	$f18,$f12
  439370:	27bdffe8 	addiu	sp,sp,-24
  439374:	46207420 	cvt.s.d	$f16,$f14
  439378:	e7b70010 	swc1	$f23,16(sp)
  43937c:	4610903c 	c.lt.s	$f18,$f16
  439380:	e7b60014 	swc1	$f22,20(sp)
  439384:	e7b50008 	swc1	$f21,8(sp)
  439388:	e7b4000c 	swc1	$f20,12(sp)
  43938c:	46009086 	mov.s	$f2,$f18
  439390:	45000002 	bc1f	43939c <rgb_to_hsv+0x3c>
  439394:	46009006 	mov.s	$f0,$f18
  439398:	46008086 	mov.s	$f2,$f16
  43939c:	4612803c 	c.lt.s	$f16,$f18
  4393a0:	c7a50028 	lwc1	$f5,40(sp)
  4393a4:	c7a4002c 	lwc1	$f4,44(sp)
  4393a8:	45000002 	bc1f	4393b4 <rgb_to_hsv+0x54>
  4393ac:	46202520 	cvt.s.d	$f20,$f4
  4393b0:	46008006 	mov.s	$f0,$f16
  4393b4:	4614103c 	c.lt.s	$f2,$f20
  4393b8:	44807800 	mtc1	zero,$f15
  4393bc:	45000002 	bc1f	4393c8 <rgb_to_hsv+0x68>
  4393c0:	3c01bf80 	lui	at,0xbf80
  4393c4:	4600a086 	mov.s	$f2,$f20
  4393c8:	4600a03c 	c.lt.s	$f20,$f0
  4393cc:	44807000 	mtc1	zero,$f14
  4393d0:	45000002 	bc1f	4393dc <rgb_to_hsv+0x7c>
  4393d4:	460011a1 	cvt.d.s	$f6,$f2
  4393d8:	4600a006 	mov.s	$f0,$f20
  4393dc:	46267032 	c.eq.d	$f14,$f6
  4393e0:	8fae0034 	lw	t6,52(sp)
  4393e4:	45010004 	bc1t	4393f8 <rgb_to_hsv+0x98>
  4393e8:	00000000 	nop
  4393ec:	46001201 	sub.s	$f8,$f2,$f0
  4393f0:	10000003 	b	439400 <rgb_to_hsv+0xa0>
  4393f4:	46024303 	div.s	$f12,$f8,$f2
  4393f8:	44806000 	mtc1	zero,$f12
  4393fc:	00000000 	nop
  439400:	460062a1 	cvt.d.s	$f10,$f12
  439404:	462a7032 	c.eq.d	$f14,$f10
  439408:	00000000 	nop
  43940c:	45000004 	bc1f	439420 <rgb_to_hsv+0xc0>
  439410:	00000000 	nop
  439414:	44810000 	mtc1	at,$f0
  439418:	1000003f 	b	439518 <rgb_to_hsv+0x1b8>
  43941c:	46000421 	cvt.d.s	$f16,$f0
  439420:	46029032 	c.eq.s	$f18,$f2
  439424:	46001581 	sub.s	$f22,$f2,$f0
  439428:	45000009 	bc1f	439450 <rgb_to_hsv+0xf0>
  43942c:	00000000 	nop
  439430:	46141101 	sub.s	$f4,$f2,$f20
  439434:	46101201 	sub.s	$f8,$f2,$f16
  439438:	00000000 	nop
  43943c:	46164283 	div.s	$f10,$f8,$f22
  439440:	00000000 	nop
  439444:	46162183 	div.s	$f6,$f4,$f22
  439448:	10000020 	b	4394cc <rgb_to_hsv+0x16c>
  43944c:	460a3001 	sub.s	$f0,$f6,$f10
  439450:	46028032 	c.eq.s	$f16,$f2
  439454:	00000000 	nop
  439458:	4500000f 	bc1f	439498 <rgb_to_hsv+0x138>
  43945c:	00000000 	nop
  439460:	46121101 	sub.s	$f4,$f2,$f18
  439464:	3c014000 	lui	at,0x4000
  439468:	46162203 	div.s	$f8,$f4,$f22
  43946c:	44815800 	mtc1	at,$f11
  439470:	44805000 	mtc1	zero,$f10
  439474:	460041a1 	cvt.d.s	$f6,$f8
  439478:	46141201 	sub.s	$f8,$f2,$f20
  43947c:	462a3100 	add.d	$f4,$f6,$f10
  439480:	00000000 	nop
  439484:	46164183 	div.s	$f6,$f8,$f22
  439488:	460032a1 	cvt.d.s	$f10,$f6
  43948c:	462a2201 	sub.d	$f8,$f4,$f10
  439490:	1000000e 	b	4394cc <rgb_to_hsv+0x16c>
  439494:	46204020 	cvt.s.d	$f0,$f8
  439498:	46101181 	sub.s	$f6,$f2,$f16
  43949c:	3c014010 	lui	at,0x4010
  4394a0:	46163103 	div.s	$f4,$f6,$f22
  4394a4:	44814800 	mtc1	at,$f9
  4394a8:	44804000 	mtc1	zero,$f8
  4394ac:	460022a1 	cvt.d.s	$f10,$f4
  4394b0:	46121101 	sub.s	$f4,$f2,$f18
  4394b4:	46285180 	add.d	$f6,$f10,$f8
  4394b8:	00000000 	nop
  4394bc:	46162283 	div.s	$f10,$f4,$f22
  4394c0:	46005221 	cvt.d.s	$f8,$f10
  4394c4:	46283101 	sub.d	$f4,$f6,$f8
  4394c8:	46202020 	cvt.s.d	$f0,$f4
  4394cc:	3c01404e 	lui	at,0x404e
  4394d0:	44813800 	mtc1	at,$f7
  4394d4:	44803000 	mtc1	zero,$f6
  4394d8:	460002a1 	cvt.d.s	$f10,$f0
  4394dc:	46265202 	mul.d	$f8,$f10,$f6
  4394e0:	46204020 	cvt.s.d	$f0,$f8
  4394e4:	46000421 	cvt.d.s	$f16,$f0
  4394e8:	462e803c 	c.lt.d	$f16,$f14
  4394ec:	00000000 	nop
  4394f0:	45000009 	bc1f	439518 <rgb_to_hsv+0x1b8>
  4394f4:	00000000 	nop
  4394f8:	8f81805c 	lw	at,-32676(gp)
  4394fc:	00000000 	nop
  439500:	c4255ad0 	lwc1	$f5,23248(at)
  439504:	c4245ad4 	lwc1	$f4,23252(at)
  439508:	00000000 	nop
  43950c:	46248280 	add.d	$f10,$f16,$f4
  439510:	46205020 	cvt.s.d	$f0,$f10
  439514:	46000421 	cvt.d.s	$f16,$f0
  439518:	8f81805c 	lw	at,-32676(gp)
  43951c:	e5cc0000 	swc1	$f12,0(t6)
  439520:	c4265adc 	lwc1	$f6,23260(at)
  439524:	c4275ad8 	lwc1	$f7,23256(at)
  439528:	8faf0030 	lw	t7,48(sp)
  43952c:	46268203 	div.d	$f8,$f16,$f6
  439530:	46204120 	cvt.s.d	$f4,$f8
  439534:	e5e40000 	swc1	$f4,0(t7)
  439538:	8fb80038 	lw	t8,56(sp)
  43953c:	00000000 	nop
  439540:	e7020000 	swc1	$f2,0(t8)
  439544:	c7b60014 	lwc1	$f22,20(sp)
  439548:	c7b70010 	lwc1	$f23,16(sp)
  43954c:	c7b4000c 	lwc1	$f20,12(sp)
  439550:	c7b50008 	lwc1	$f21,8(sp)
  439554:	03e00008 	jr	ra
  439558:	27bd0018 	addiu	sp,sp,24
