# Function: FUN_00416fec
# Address: 0x00416fec - 0x004172c8
# Size: 0x2dc (732 bytes)
# End detected by: jr ra
# GP = 0x1001db30
#


fsn.original:     file format elf32-tradbigmips


Disassembly of section .text:

00416fec <rescanDatabase+0x18f0>:
  416fec:	3c1c0fc0 	lui	gp,0xfc0
  416ff0:	279c6b44 	addiu	gp,gp,27460
  416ff4:	0399e021 	addu	gp,gp,t9
  416ff8:	8f8e809c 	lw	t6,-32612(gp)
  416ffc:	27bdffb8 	addiu	sp,sp,-72
  417000:	8dce0000 	lw	t6,0(t6)
  417004:	afbf001c 	sw	ra,28(sp)
  417008:	afbc0018 	sw	gp,24(sp)
  41700c:	afa40048 	sw	a0,72(sp)
  417010:	11c00009 	beqz	t6,417038 <rescanDatabase+0x193c>
  417014:	afa5004c 	sw	a1,76(sp)
  417018:	8f84806c 	lw	a0,-32660(gp)
  41701c:	8f9982c8 	lw	t9,-32056(gp)
  417020:	8c846690 	lw	a0,26256(a0)
  417024:	0320f809 	jalr	t9
  417028:	00000000 	nop
  41702c:	8fbc0018 	lw	gp,24(sp)
  417030:	1000001e 	b	4170ac <rescanDatabase+0x19b0>
  417034:	00401825 	move	v1,v0
  417038:	8f84806c 	lw	a0,-32660(gp)
  41703c:	00000000 	nop
  417040:	8c846690 	lw	a0,26256(a0)
  417044:	00000000 	nop
  417048:	8c8f0000 	lw	t7,0(a0)
  41704c:	00000000 	nop
  417050:	25f8ffff 	addiu	t8,t7,-1
  417054:	ac980000 	sw	t8,0(a0)
  417058:	8f84806c 	lw	a0,-32660(gp)
  41705c:	00000000 	nop
  417060:	8c846690 	lw	a0,26256(a0)
  417064:	00000000 	nop
  417068:	8c990000 	lw	t9,0(a0)
  41706c:	00000000 	nop
  417070:	07210008 	bgez	t9,417094 <rescanDatabase+0x1998>
  417074:	00000000 	nop
  417078:	8f9982d8 	lw	t9,-32040(gp)
  41707c:	00000000 	nop
  417080:	0320f809 	jalr	t9
  417084:	00000000 	nop
  417088:	8fbc0018 	lw	gp,24(sp)
  41708c:	10000006 	b	4170a8 <rescanDatabase+0x19ac>
  417090:	00402825 	move	a1,v0
  417094:	8c820004 	lw	v0,4(a0)
  417098:	00000000 	nop
  41709c:	90450000 	lbu	a1,0(v0)
  4170a0:	24480001 	addiu	t0,v0,1
  4170a4:	ac880004 	sw	t0,4(a0)
  4170a8:	00a01825 	move	v1,a1
  4170ac:	24010003 	li	at,3
  4170b0:	1061000f 	beq	v1,at,4170f0 <rescanDatabase+0x19f4>
  4170b4:	00000000 	nop
  4170b8:	8f848098 	lw	a0,-32616(gp)
  4170bc:	8f85805c 	lw	a1,-32676(gp)
  4170c0:	8f9983f8 	lw	t9,-31752(gp)
  4170c4:	24840020 	addiu	a0,a0,32
  4170c8:	0320f809 	jalr	t9
  4170cc:	24a5acf0 	addiu	a1,a1,-21264
  4170d0:	8fbc0018 	lw	gp,24(sp)
  4170d4:	24040001 	li	a0,1
  4170d8:	8f9983a0 	lw	t9,-31840(gp)
  4170dc:	00000000 	nop
  4170e0:	0320f809 	jalr	t9
  4170e4:	00000000 	nop
  4170e8:	8fbc0018 	lw	gp,24(sp)
  4170ec:	00000000 	nop
  4170f0:	8f87806c 	lw	a3,-32660(gp)
  4170f4:	8f9982cc 	lw	t9,-32052(gp)
  4170f8:	8ce76690 	lw	a3,26256(a3)
  4170fc:	27a40038 	addiu	a0,sp,56
  417100:	24050010 	li	a1,16
  417104:	0320f809 	jalr	t9
  417108:	24060001 	li	a2,1
  41710c:	8fbc0018 	lw	gp,24(sp)
  417110:	24010001 	li	at,1
  417114:	10410010 	beq	v0,at,417158 <rescanDatabase+0x1a5c>
  417118:	8fa90038 	lw	t1,56(sp)
  41711c:	8f848098 	lw	a0,-32616(gp)
  417120:	8f85805c 	lw	a1,-32676(gp)
  417124:	8f9983f8 	lw	t9,-31752(gp)
  417128:	24840020 	addiu	a0,a0,32
  41712c:	0320f809 	jalr	t9
  417130:	24a5ad1c 	addiu	a1,a1,-21220
  417134:	8fbc0018 	lw	gp,24(sp)
  417138:	24040001 	li	a0,1
  41713c:	8f9983a0 	lw	t9,-31840(gp)
  417140:	00000000 	nop
  417144:	0320f809 	jalr	t9
  417148:	00000000 	nop
  41714c:	8fbc0018 	lw	gp,24(sp)
  417150:	00000000 	nop
  417154:	8fa90038 	lw	t1,56(sp)
  417158:	8f81806c 	lw	at,-32660(gp)
  41715c:	8faa003c 	lw	t2,60(sp)
  417160:	ac2966f8 	sw	t1,26360(at)
  417164:	8f81806c 	lw	at,-32660(gp)
  417168:	97ab0040 	lhu	t3,64(sp)
  41716c:	ac2a66fc 	sw	t2,26364(at)
  417170:	8f81806c 	lw	at,-32660(gp)
  417174:	97a60042 	lhu	a2,66(sp)
  417178:	ac2b6700 	sw	t3,26368(at)
  41717c:	8f81806c 	lw	at,-32660(gp)
  417180:	97ac0044 	lhu	t4,68(sp)
  417184:	a4266704 	sh	a2,26372(at)
  417188:	8f81806c 	lw	at,-32660(gp)
  41718c:	8f87806c 	lw	a3,-32660(gp)
  417190:	a42c6706 	sh	t4,26374(at)
  417194:	8f81806c 	lw	at,-32660(gp)
  417198:	93ad0046 	lbu	t5,70(sp)
  41719c:	8f9982cc 	lw	t9,-32052(gp)
  4171a0:	8fa40048 	lw	a0,72(sp)
  4171a4:	8ce76690 	lw	a3,26256(a3)
  4171a8:	24050001 	li	a1,1
  4171ac:	0320f809 	jalr	t9
  4171b0:	a02d6708 	sb	t5,26376(at)
  4171b4:	8fbc0018 	lw	gp,24(sp)
  4171b8:	00000000 	nop
  4171bc:	8f8e806c 	lw	t6,-32660(gp)
  4171c0:	00000000 	nop
  4171c4:	95ce6704 	lhu	t6,26372(t6)
  4171c8:	00000000 	nop
  4171cc:	104e000f 	beq	v0,t6,41720c <rescanDatabase+0x1b10>
  4171d0:	00000000 	nop
  4171d4:	8f848098 	lw	a0,-32616(gp)
  4171d8:	8f85805c 	lw	a1,-32676(gp)
  4171dc:	8f9983f8 	lw	t9,-31752(gp)
  4171e0:	24840020 	addiu	a0,a0,32
  4171e4:	0320f809 	jalr	t9
  4171e8:	24a5ad48 	addiu	a1,a1,-21176
  4171ec:	8fbc0018 	lw	gp,24(sp)
  4171f0:	24040001 	li	a0,1
  4171f4:	8f9983a0 	lw	t9,-31840(gp)
  4171f8:	00000000 	nop
  4171fc:	0320f809 	jalr	t9
  417200:	00000000 	nop
  417204:	8fbc0018 	lw	gp,24(sp)
  417208:	00000000 	nop
  41720c:	8f98806c 	lw	t8,-32660(gp)
  417210:	8faf0048 	lw	t7,72(sp)
  417214:	97186704 	lhu	t8,26372(t8)
  417218:	8f88806c 	lw	t0,-32660(gp)
  41721c:	01f8c821 	addu	t9,t7,t8
  417220:	a3200000 	sb	zero,0(t9)
  417224:	95086706 	lhu	t0,26374(t0)
  417228:	8fa4004c 	lw	a0,76(sp)
  41722c:	1100001c 	beqz	t0,4172a0 <rescanDatabase+0x1ba4>
  417230:	24050001 	li	a1,1
  417234:	8f87806c 	lw	a3,-32660(gp)
  417238:	8f9982cc 	lw	t9,-32052(gp)
  41723c:	8ce76690 	lw	a3,26256(a3)
  417240:	0320f809 	jalr	t9
  417244:	01003025 	move	a2,t0
  417248:	8fbc0018 	lw	gp,24(sp)
  41724c:	00000000 	nop
  417250:	8f89806c 	lw	t1,-32660(gp)
  417254:	00000000 	nop
  417258:	95296706 	lhu	t1,26374(t1)
  41725c:	00000000 	nop
  417260:	1049000f 	beq	v0,t1,4172a0 <rescanDatabase+0x1ba4>
  417264:	00000000 	nop
  417268:	8f848098 	lw	a0,-32616(gp)
  41726c:	8f85805c 	lw	a1,-32676(gp)
  417270:	8f9983f8 	lw	t9,-31752(gp)
  417274:	24840020 	addiu	a0,a0,32
  417278:	0320f809 	jalr	t9
  41727c:	24a5ad78 	addiu	a1,a1,-21128
  417280:	8fbc0018 	lw	gp,24(sp)
  417284:	24040001 	li	a0,1
  417288:	8f9983a0 	lw	t9,-31840(gp)
  41728c:	00000000 	nop
  417290:	0320f809 	jalr	t9
  417294:	00000000 	nop
  417298:	8fbc0018 	lw	gp,24(sp)
  41729c:	00000000 	nop
  4172a0:	8f8b806c 	lw	t3,-32660(gp)
  4172a4:	8faa004c 	lw	t2,76(sp)
  4172a8:	956b6706 	lhu	t3,26374(t3)
  4172ac:	8f82806c 	lw	v0,-32660(gp)
  4172b0:	014b6021 	addu	t4,t2,t3
  4172b4:	a1800000 	sb	zero,0(t4)
  4172b8:	8fbf001c 	lw	ra,28(sp)
  4172bc:	27bd0048 	addiu	sp,sp,72
  4172c0:	03e00008 	jr	ra
  4172c4:	244266f8 	addiu	v0,v0,26360
