# Function: FUN_004307bc
# Address: 0x004307bc - 0x004308ec
# Size: 0x130 (304 bytes)
# End detected by: jr ra
# GP = 0x1001db30
#


fsn.original:     file format elf32-tradbigmips


Disassembly of section .text:

004307bc <usystem+0xa24>:
  4307bc:	3c1c0fbf 	lui	gp,0xfbf
  4307c0:	279cd374 	addiu	gp,gp,-11404
  4307c4:	0399e021 	addu	gp,gp,t9
  4307c8:	27bdffb0 	addiu	sp,sp,-80
  4307cc:	afa40050 	sw	a0,80(sp)
  4307d0:	8f84806c 	lw	a0,-32660(gp)
  4307d4:	afa50054 	sw	a1,84(sp)
  4307d8:	8f81806c 	lw	at,-32660(gp)
  4307dc:	8f85805c 	lw	a1,-32676(gp)
  4307e0:	8f998214 	lw	t9,-32236(gp)
  4307e4:	afbf001c 	sw	ra,28(sp)
  4307e8:	8c846ee4 	lw	a0,28388(a0)
  4307ec:	afbc0018 	sw	gp,24(sp)
  4307f0:	afa60058 	sw	a2,88(sp)
  4307f4:	ac206edc 	sw	zero,28380(at)
  4307f8:	0320f809 	jalr	t9
  4307fc:	24a53d18 	addiu	a1,a1,15640
  430800:	8fbc0018 	lw	gp,24(sp)
  430804:	00000000 	nop
  430808:	8f84806c 	lw	a0,-32660(gp)
  43080c:	8f85805c 	lw	a1,-32676(gp)
  430810:	8f998214 	lw	t9,-32236(gp)
  430814:	8c846ee8 	lw	a0,28392(a0)
  430818:	0320f809 	jalr	t9
  43081c:	24a53d1c 	addiu	a1,a1,15644
  430820:	8fbc0018 	lw	gp,24(sp)
  430824:	00000000 	nop
  430828:	8f84806c 	lw	a0,-32660(gp)
  43082c:	8f85805c 	lw	a1,-32676(gp)
  430830:	8f998214 	lw	t9,-32236(gp)
  430834:	8c846eec 	lw	a0,28396(a0)
  430838:	0320f809 	jalr	t9
  43083c:	24a53d20 	addiu	a1,a1,15648
  430840:	8fbc0018 	lw	gp,24(sp)
  430844:	00002825 	move	a1,zero
  430848:	8f84806c 	lw	a0,-32660(gp)
  43084c:	8f998318 	lw	t9,-31976(gp)
  430850:	8c846ef8 	lw	a0,28408(a0)
  430854:	0320f809 	jalr	t9
  430858:	00000000 	nop
  43085c:	8fbc0018 	lw	gp,24(sp)
  430860:	00000000 	nop
  430864:	8f998020 	lw	t9,-32736(gp)
  430868:	00000000 	nop
  43086c:	27390358 	addiu	t9,t9,856
  430870:	0320f809 	jalr	t9
  430874:	00000000 	nop
  430878:	8fbc0018 	lw	gp,24(sp)
  43087c:	27a50028 	addiu	a1,sp,40
  430880:	8f8f806c 	lw	t7,-32660(gp)
  430884:	8f8e80a0 	lw	t6,-32608(gp)
  430888:	8f84806c 	lw	a0,-32660(gp)
  43088c:	8f998340 	lw	t9,-31936(gp)
  430890:	8def6ed0 	lw	t7,28368(t7)
  430894:	25ce1d4d 	addiu	t6,t6,7501
  430898:	8c846ee0 	lw	a0,28384(a0)
  43089c:	afae0028 	sw	t6,40(sp)
  4308a0:	24060001 	li	a2,1
  4308a4:	0320f809 	jalr	t9
  4308a8:	afaf002c 	sw	t7,44(sp)
  4308ac:	8fbc0018 	lw	gp,24(sp)
  4308b0:	00000000 	nop
  4308b4:	8f998534 	lw	t9,-31436(gp)
  4308b8:	00000000 	nop
  4308bc:	0320f809 	jalr	t9
  4308c0:	00000000 	nop
  4308c4:	8fbc0018 	lw	gp,24(sp)
  4308c8:	00000000 	nop
  4308cc:	8f998780 	lw	t9,-30848(gp)
  4308d0:	00000000 	nop
  4308d4:	0320f809 	jalr	t9
  4308d8:	00000000 	nop
  4308dc:	8fbf001c 	lw	ra,28(sp)
  4308e0:	8fbc0018 	lw	gp,24(sp)
  4308e4:	03e00008 	jr	ra
  4308e8:	27bd0050 	addiu	sp,sp,80
