# Function: FUN_0040a7ec
# Address: 0x0040a7ec - 0x0040ae2c
# Size: 0x640 (1600 bytes)
# End detected by: jr ra
# GP = 0x1001db30
#


fsn.original:     file format elf32-tradbigmips


Disassembly of section .text:

0040a7ec <_mcount+0x104>:
  40a7ec:	3c1c0fc1 	lui	gp,0xfc1
  40a7f0:	279c3344 	addiu	gp,gp,13124
  40a7f4:	0399e021 	addu	gp,gp,t9
  40a7f8:	27bdff18 	addiu	sp,sp,-232
  40a7fc:	8f8580b4 	lw	a1,-32588(gp)
  40a800:	8f86806c 	lw	a2,-32660(gp)
  40a804:	8f84805c 	lw	a0,-32676(gp)
  40a808:	8f99839c 	lw	t9,-31844(gp)
  40a80c:	afb10024 	sw	s1,36(sp)
  40a810:	27b10048 	addiu	s1,sp,72
  40a814:	afbf002c 	sw	ra,44(sp)
  40a818:	8ca50000 	lw	a1,0(a1)
  40a81c:	8cc6664c 	lw	a2,26188(a2)
  40a820:	afbc0028 	sw	gp,40(sp)
  40a824:	afb00020 	sw	s0,32(sp)
  40a828:	02203825 	move	a3,s1
  40a82c:	afa00010 	sw	zero,16(sp)
  40a830:	0320f809 	jalr	t9
  40a834:	2484a07c 	addiu	a0,a0,-24452
  40a838:	8fbc0028 	lw	gp,40(sp)
  40a83c:	00000000 	nop
  40a840:	8f908984 	lw	s0,-30332(gp)
  40a844:	8f8589b8 	lw	a1,-30280(gp)
  40a848:	8e0e0000 	lw	t6,0(s0)
  40a84c:	00000000 	nop
  40a850:	adc2000c 	sw	v0,12(t6)
  40a854:	8e0f0000 	lw	t7,0(s0)
  40a858:	8f9987a4 	lw	t9,-30812(gp)
  40a85c:	8de4000c 	lw	a0,12(t7)
  40a860:	0320f809 	jalr	t9
  40a864:	00000000 	nop
  40a868:	8fbc0028 	lw	gp,40(sp)
  40a86c:	24190001 	li	t9,1
  40a870:	8f9880a0 	lw	t8,-32608(gp)
  40a874:	8f8880a0 	lw	t0,-32608(gp)
  40a878:	8f8a80a0 	lw	t2,-32608(gp)
  40a87c:	8e0c0000 	lw	t4,0(s0)
  40a880:	afb9004c 	sw	t9,76(sp)
  40a884:	24090001 	li	t1,1
  40a888:	240b0001 	li	t3,1
  40a88c:	271827b5 	addiu	t8,t8,10165
  40a890:	25081d63 	addiu	t0,t0,7523
  40a894:	254a2375 	addiu	t2,t2,9077
  40a898:	8f998628 	lw	t9,-31192(gp)
  40a89c:	afb80048 	sw	t8,72(sp)
  40a8a0:	afa80050 	sw	t0,80(sp)
  40a8a4:	afa90054 	sw	t1,84(sp)
  40a8a8:	afaa0058 	sw	t2,88(sp)
  40a8ac:	afab005c 	sw	t3,92(sp)
  40a8b0:	8d84000c 	lw	a0,12(t4)
  40a8b4:	02202825 	move	a1,s1
  40a8b8:	0320f809 	jalr	t9
  40a8bc:	24060003 	li	a2,3
  40a8c0:	8fbc0028 	lw	gp,40(sp)
  40a8c4:	24190001 	li	t9,1
  40a8c8:	8f8d80a0 	lw	t5,-32608(gp)
  40a8cc:	8f8f80a0 	lw	t7,-32608(gp)
  40a8d0:	8f9880a0 	lw	t8,-32608(gp)
  40a8d4:	8f8880a0 	lw	t0,-32608(gp)
  40a8d8:	8e0a0000 	lw	t2,0(s0)
  40a8dc:	8f8580b0 	lw	a1,-32592(gp)
  40a8e0:	240e0003 	li	t6,3
  40a8e4:	afb9005c 	sw	t9,92(sp)
  40a8e8:	24090001 	li	t1,1
  40a8ec:	25ad27b5 	addiu	t5,t5,10165
  40a8f0:	25ef2841 	addiu	t7,t7,10305
  40a8f4:	27181d63 	addiu	t8,t8,7523
  40a8f8:	25082375 	addiu	t0,t0,9077
  40a8fc:	8f9983b4 	lw	t9,-31820(gp)
  40a900:	8f84805c 	lw	a0,-32676(gp)
  40a904:	afad0048 	sw	t5,72(sp)
  40a908:	afae004c 	sw	t6,76(sp)
  40a90c:	afaf0050 	sw	t7,80(sp)
  40a910:	afa20054 	sw	v0,84(sp)
  40a914:	afb80058 	sw	t8,88(sp)
  40a918:	afa80060 	sw	t0,96(sp)
  40a91c:	afa90064 	sw	t1,100(sp)
  40a920:	240b0004 	li	t3,4
  40a924:	8d46000c 	lw	a2,12(t2)
  40a928:	8ca50000 	lw	a1,0(a1)
  40a92c:	afab0010 	sw	t3,16(sp)
  40a930:	02203825 	move	a3,s1
  40a934:	0320f809 	jalr	t9
  40a938:	2484a090 	addiu	a0,a0,-24432
  40a93c:	8fbc0028 	lw	gp,40(sp)
  40a940:	240d0003 	li	t5,3
  40a944:	8f848a28 	lw	a0,-30168(gp)
  40a948:	8f8a8a08 	lw	t2,-30200(gp)
  40a94c:	8f8c80a0 	lw	t4,-32608(gp)
  40a950:	8f8e80a0 	lw	t6,-32608(gp)
  40a954:	8f8f80a0 	lw	t7,-32608(gp)
  40a958:	8f9980a0 	lw	t9,-32608(gp)
  40a95c:	8f8980a0 	lw	t1,-32608(gp)
  40a960:	8c8b0008 	lw	t3,8(a0)
  40a964:	8d4a0000 	lw	t2,0(t2)
  40a968:	24180001 	li	t8,1
  40a96c:	24080001 	li	t0,1
  40a970:	258c27b5 	addiu	t4,t4,10165
  40a974:	25ce2841 	addiu	t6,t6,10305
  40a978:	25ef1d63 	addiu	t7,t7,7523
  40a97c:	27392375 	addiu	t9,t9,9077
  40a980:	25291d4d 	addiu	t1,t1,7501
  40a984:	afac0048 	sw	t4,72(sp)
  40a988:	afad004c 	sw	t5,76(sp)
  40a98c:	afae0050 	sw	t6,80(sp)
  40a990:	afa20054 	sw	v0,84(sp)
  40a994:	afaf0058 	sw	t7,88(sp)
  40a998:	afb8005c 	sw	t8,92(sp)
  40a99c:	afb90060 	sw	t9,96(sp)
  40a9a0:	afa80064 	sw	t0,100(sp)
  40a9a4:	afa90068 	sw	t1,104(sp)
  40a9a8:	24030005 	li	v1,5
  40a9ac:	1160000f 	beqz	t3,40a9ec <_mcount+0x304>
  40a9b0:	afaa006c 	sw	t2,108(sp)
  40a9b4:	8f8c80a4 	lw	t4,-32604(gp)
  40a9b8:	8c8d0004 	lw	t5,4(a0)
  40a9bc:	24030006 	li	v1,6
  40a9c0:	8f8f80a4 	lw	t7,-32604(gp)
  40a9c4:	000370c0 	sll	t6,v1,0x3
  40a9c8:	258c00d6 	addiu	t4,t4,214
  40a9cc:	8c980000 	lw	t8,0(a0)
  40a9d0:	afac0070 	sw	t4,112(sp)
  40a9d4:	022e1021 	addu	v0,s1,t6
  40a9d8:	afad0074 	sw	t5,116(sp)
  40a9dc:	25ef0034 	addiu	t7,t7,52
  40a9e0:	ac4f0000 	sw	t7,0(v0)
  40a9e4:	24630001 	addiu	v1,v1,1
  40a9e8:	ac580004 	sw	t8,4(v0)
  40a9ec:	8e190000 	lw	t9,0(s0)
  40a9f0:	8f8580a8 	lw	a1,-32600(gp)
  40a9f4:	8f26000c 	lw	a2,12(t9)
  40a9f8:	8f9983b4 	lw	t9,-31820(gp)
  40a9fc:	8f84805c 	lw	a0,-32676(gp)
  40aa00:	afa30010 	sw	v1,16(sp)
  40aa04:	8ca50000 	lw	a1,0(a1)
  40aa08:	24030005 	li	v1,5
  40aa0c:	02203825 	move	a3,s1
  40aa10:	0320f809 	jalr	t9
  40aa14:	2484a09c 	addiu	a0,a0,-24420
  40aa18:	8fbc0028 	lw	gp,40(sp)
  40aa1c:	8e080000 	lw	t0,0(s0)
  40aa20:	8f8980a0 	lw	t1,-32608(gp)
  40aa24:	ad02002c 	sw	v0,44(t0)
  40aa28:	8f8b80a0 	lw	t3,-32608(gp)
  40aa2c:	8e0c0000 	lw	t4,0(s0)
  40aa30:	240a0003 	li	t2,3
  40aa34:	252927b5 	addiu	t1,t1,10165
  40aa38:	256b2841 	addiu	t3,t3,10305
  40aa3c:	afa90048 	sw	t1,72(sp)
  40aa40:	afaa004c 	sw	t2,76(sp)
  40aa44:	afab0050 	sw	t3,80(sp)
  40aa48:	8d8d002c 	lw	t5,44(t4)
  40aa4c:	24190001 	li	t9,1
  40aa50:	8f8e80a0 	lw	t6,-32608(gp)
  40aa54:	8f9880a0 	lw	t8,-32608(gp)
  40aa58:	8f8880a0 	lw	t0,-32608(gp)
  40aa5c:	afb90064 	sw	t9,100(sp)
  40aa60:	8f9986a0 	lw	t9,-31072(gp)
  40aa64:	240f0001 	li	t7,1
  40aa68:	24090001 	li	t1,1
  40aa6c:	25ce1399 	addiu	t6,t6,5017
  40aa70:	27181d63 	addiu	t8,t8,7523
  40aa74:	25082375 	addiu	t0,t0,9077
  40aa78:	afae0058 	sw	t6,88(sp)
  40aa7c:	afaf005c 	sw	t7,92(sp)
  40aa80:	afb80060 	sw	t8,96(sp)
  40aa84:	afa80068 	sw	t0,104(sp)
  40aa88:	afa9006c 	sw	t1,108(sp)
  40aa8c:	0320f809 	jalr	t9
  40aa90:	afad0054 	sw	t5,84(sp)
  40aa94:	8fbc0028 	lw	gp,40(sp)
  40aa98:	10400006 	beqz	v0,40aab4 <_mcount+0x3cc>
  40aa9c:	240c0001 	li	t4,1
  40aaa0:	8f8a805c 	lw	t2,-32676(gp)
  40aaa4:	00000000 	nop
  40aaa8:	254aa0b0 	addiu	t2,t2,-24400
  40aaac:	10000005 	b	40aac4 <_mcount+0x3dc>
  40aab0:	afaa0070 	sw	t2,112(sp)
  40aab4:	8f8b805c 	lw	t3,-32676(gp)
  40aab8:	00000000 	nop
  40aabc:	256ba0bc 	addiu	t3,t3,-24388
  40aac0:	afab0070 	sw	t3,112(sp)
  40aac4:	24030006 	li	v1,6
  40aac8:	8f8e805c 	lw	t6,-32676(gp)
  40aacc:	8f8f8068 	lw	t7,-32664(gp)
  40aad0:	000368c0 	sll	t5,v1,0x3
  40aad4:	afac0074 	sw	t4,116(sp)
  40aad8:	022d1021 	addu	v0,s1,t5
  40aadc:	25cea0c8 	addiu	t6,t6,-24376
  40aae0:	25ef00a4 	addiu	t7,t7,164
  40aae4:	8f8580ac 	lw	a1,-32596(gp)
  40aae8:	8e180000 	lw	t8,0(s0)
  40aaec:	ac4f0004 	sw	t7,4(v0)
  40aaf0:	ac4e0000 	sw	t6,0(v0)
  40aaf4:	8f84805c 	lw	a0,-32676(gp)
  40aaf8:	8f9983b4 	lw	t9,-31820(gp)
  40aafc:	24630001 	addiu	v1,v1,1
  40ab00:	8ca50000 	lw	a1,0(a1)
  40ab04:	8f06000c 	lw	a2,12(t8)
  40ab08:	afa30010 	sw	v1,16(sp)
  40ab0c:	02203825 	move	a3,s1
  40ab10:	0320f809 	jalr	t9
  40ab14:	2484a0d4 	addiu	a0,a0,-24364
  40ab18:	8fbc0028 	lw	gp,40(sp)
  40ab1c:	8e190000 	lw	t9,0(s0)
  40ab20:	8f85805c 	lw	a1,-32676(gp)
  40ab24:	af220008 	sw	v0,8(t9)
  40ab28:	8e080000 	lw	t0,0(s0)
  40ab2c:	8f9983ac 	lw	t9,-31828(gp)
  40ab30:	8f868018 	lw	a2,-32744(gp)
  40ab34:	8d040008 	lw	a0,8(t0)
  40ab38:	00003825 	move	a3,zero
  40ab3c:	24a5a0e0 	addiu	a1,a1,-24352
  40ab40:	0320f809 	jalr	t9
  40ab44:	24c6bc64 	addiu	a2,a2,-17308
  40ab48:	8fbc0028 	lw	gp,40(sp)
  40ab4c:	00000000 	nop
  40ab50:	8f9986a0 	lw	t9,-31072(gp)
  40ab54:	00000000 	nop
  40ab58:	0320f809 	jalr	t9
  40ab5c:	00000000 	nop
  40ab60:	8fbc0028 	lw	gp,40(sp)
  40ab64:	10400004 	beqz	v0,40ab78 <_mcount+0x490>
  40ab68:	00003825 	move	a3,zero
  40ab6c:	8f85805c 	lw	a1,-32676(gp)
  40ab70:	10000004 	b	40ab84 <_mcount+0x49c>
  40ab74:	24a5a0f0 	addiu	a1,a1,-24336
  40ab78:	8f85805c 	lw	a1,-32676(gp)
  40ab7c:	00000000 	nop
  40ab80:	24a5a104 	addiu	a1,a1,-24316
  40ab84:	8e090000 	lw	t1,0(s0)
  40ab88:	8f868018 	lw	a2,-32744(gp)
  40ab8c:	8f9983ac 	lw	t9,-31828(gp)
  40ab90:	8d240008 	lw	a0,8(t1)
  40ab94:	0320f809 	jalr	t9
  40ab98:	24c6bce8 	addiu	a2,a2,-17176
  40ab9c:	8fbc0028 	lw	gp,40(sp)
  40aba0:	8e0a0000 	lw	t2,0(s0)
  40aba4:	8f85805c 	lw	a1,-32676(gp)
  40aba8:	8f868018 	lw	a2,-32744(gp)
  40abac:	8f9983ac 	lw	t9,-31828(gp)
  40abb0:	8d440008 	lw	a0,8(t2)
  40abb4:	00003825 	move	a3,zero
  40abb8:	24a5a118 	addiu	a1,a1,-24296
  40abbc:	0320f809 	jalr	t9
  40abc0:	24c6bdb4 	addiu	a2,a2,-16972
  40abc4:	8fbc0028 	lw	gp,40(sp)
  40abc8:	8e0b0000 	lw	t3,0(s0)
  40abcc:	8f85805c 	lw	a1,-32676(gp)
  40abd0:	8f868018 	lw	a2,-32744(gp)
  40abd4:	8f9983ac 	lw	t9,-31828(gp)
  40abd8:	8d640008 	lw	a0,8(t3)
  40abdc:	00003825 	move	a3,zero
  40abe0:	24a5a128 	addiu	a1,a1,-24280
  40abe4:	0320f809 	jalr	t9
  40abe8:	24c6c1a0 	addiu	a2,a2,-15968
  40abec:	8fbc0028 	lw	gp,40(sp)
  40abf0:	8e0c0000 	lw	t4,0(s0)
  40abf4:	8f85806c 	lw	a1,-32660(gp)
  40abf8:	8f9983a8 	lw	t9,-31832(gp)
  40abfc:	8d840008 	lw	a0,8(t4)
  40ac00:	8ca56634 	lw	a1,26164(a1)
  40ac04:	0320f809 	jalr	t9
  40ac08:	00000000 	nop
  40ac0c:	8fbc0028 	lw	gp,40(sp)
  40ac10:	8e0d0000 	lw	t5,0(s0)
  40ac14:	8f9987a4 	lw	t9,-30812(gp)
  40ac18:	8f85899c 	lw	a1,-30308(gp)
  40ac1c:	8da40008 	lw	a0,8(t5)
  40ac20:	0320f809 	jalr	t9
  40ac24:	00000000 	nop
  40ac28:	8fbc0028 	lw	gp,40(sp)
  40ac2c:	8e030000 	lw	v1,0(s0)
  40ac30:	8f8e80a0 	lw	t6,-32608(gp)
  40ac34:	8f9880a0 	lw	t8,-32608(gp)
  40ac38:	240f0004 	li	t7,4
  40ac3c:	25ce27b5 	addiu	t6,t6,10165
  40ac40:	27182841 	addiu	t8,t8,10305
  40ac44:	afae0048 	sw	t6,72(sp)
  40ac48:	afaf004c 	sw	t7,76(sp)
  40ac4c:	afb80050 	sw	t8,80(sp)
  40ac50:	8c79002c 	lw	t9,44(v1)
  40ac54:	8f8880a0 	lw	t0,-32608(gp)
  40ac58:	8f8a80a0 	lw	t2,-32608(gp)
  40ac5c:	24090004 	li	t1,4
  40ac60:	25081399 	addiu	t0,t0,5017
  40ac64:	254a13eb 	addiu	t2,t2,5099
  40ac68:	afa80058 	sw	t0,88(sp)
  40ac6c:	afa9005c 	sw	t1,92(sp)
  40ac70:	afaa0060 	sw	t2,96(sp)
  40ac74:	afb90054 	sw	t9,84(sp)
  40ac78:	8c6b0008 	lw	t3,8(v1)
  40ac7c:	8f8c80a0 	lw	t4,-32608(gp)
  40ac80:	8f8e80a0 	lw	t6,-32608(gp)
  40ac84:	240d0004 	li	t5,4
  40ac88:	258c1d63 	addiu	t4,t4,7523
  40ac8c:	25ce1d8a 	addiu	t6,t6,7562
  40ac90:	afac0068 	sw	t4,104(sp)
  40ac94:	afad006c 	sw	t5,108(sp)
  40ac98:	afae0070 	sw	t6,112(sp)
  40ac9c:	afab0064 	sw	t3,100(sp)
  40aca0:	8c6f0008 	lw	t7,8(v1)
  40aca4:	8f9880a0 	lw	t8,-32608(gp)
  40aca8:	8f8880a0 	lw	t0,-32608(gp)
  40acac:	24190004 	li	t9,4
  40acb0:	27182375 	addiu	t8,t8,9077
  40acb4:	2508239f 	addiu	t0,t0,9119
  40acb8:	afb80078 	sw	t8,120(sp)
  40acbc:	afb9007c 	sw	t9,124(sp)
  40acc0:	afa80080 	sw	t0,128(sp)
  40acc4:	afaf0074 	sw	t7,116(sp)
  40acc8:	8c690008 	lw	t1,8(v1)
  40accc:	8f998760 	lw	t9,-30880(gp)
  40acd0:	afa90084 	sw	t1,132(sp)
  40acd4:	8c64000c 	lw	a0,12(v1)
  40acd8:	02202825 	move	a1,s1
  40acdc:	0320f809 	jalr	t9
  40ace0:	24060008 	li	a2,8
  40ace4:	8fbc0028 	lw	gp,40(sp)
  40ace8:	8e030000 	lw	v1,0(s0)
  40acec:	8f8a80a0 	lw	t2,-32608(gp)
  40acf0:	8f8c80a0 	lw	t4,-32608(gp)
  40acf4:	240b0004 	li	t3,4
  40acf8:	254a27b5 	addiu	t2,t2,10165
  40acfc:	258c2841 	addiu	t4,t4,10305
  40ad00:	afaa0048 	sw	t2,72(sp)
  40ad04:	afab004c 	sw	t3,76(sp)
  40ad08:	afac0050 	sw	t4,80(sp)
  40ad0c:	8c6d0008 	lw	t5,8(v1)
  40ad10:	8f8e80a0 	lw	t6,-32608(gp)
  40ad14:	8f9880a0 	lw	t8,-32608(gp)
  40ad18:	8f88898c 	lw	t0,-30324(gp)
  40ad1c:	240f0004 	li	t7,4
  40ad20:	25ce1d63 	addiu	t6,t6,7523
  40ad24:	27181d8a 	addiu	t8,t8,7562
  40ad28:	afae0058 	sw	t6,88(sp)
  40ad2c:	afaf005c 	sw	t7,92(sp)
  40ad30:	afb80060 	sw	t8,96(sp)
  40ad34:	afad0054 	sw	t5,84(sp)
  40ad38:	8c790008 	lw	t9,8(v1)
  40ad3c:	8d080000 	lw	t0,0(t0)
  40ad40:	02203025 	move	a2,s1
  40ad44:	15000004 	bnez	t0,40ad58 <_mcount+0x670>
  40ad48:	afb90064 	sw	t9,100(sp)
  40ad4c:	8f85805c 	lw	a1,-32676(gp)
  40ad50:	10000004 	b	40ad64 <_mcount+0x67c>
  40ad54:	24a5a138 	addiu	a1,a1,-24264
  40ad58:	8f85805c 	lw	a1,-32676(gp)
  40ad5c:	00000000 	nop
  40ad60:	24a5a148 	addiu	a1,a1,-24248
  40ad64:	8f99837c 	lw	t9,-31876(gp)
  40ad68:	8c64000c 	lw	a0,12(v1)
  40ad6c:	0320f809 	jalr	t9
  40ad70:	24070004 	li	a3,4
  40ad74:	8fbc0028 	lw	gp,40(sp)
  40ad78:	8e090000 	lw	t1,0(s0)
  40ad7c:	8f85805c 	lw	a1,-32676(gp)
  40ad80:	ad220024 	sw	v0,36(t1)
  40ad84:	8e0a0000 	lw	t2,0(s0)
  40ad88:	8f998384 	lw	t9,-31868(gp)
  40ad8c:	8d440024 	lw	a0,36(t2)
  40ad90:	02203025 	move	a2,s1
  40ad94:	00003825 	move	a3,zero
  40ad98:	0320f809 	jalr	t9
  40ad9c:	24a5a158 	addiu	a1,a1,-24232
  40ada0:	8e0b0000 	lw	t3,0(s0)
  40ada4:	8fbc0028 	lw	gp,40(sp)
  40ada8:	ad620028 	sw	v0,40(t3)
  40adac:	8e0c0000 	lw	t4,0(s0)
  40adb0:	8f998388 	lw	t9,-31864(gp)
  40adb4:	8d840028 	lw	a0,40(t4)
  40adb8:	0320f809 	jalr	t9
  40adbc:	00000000 	nop
  40adc0:	8fbc0028 	lw	gp,40(sp)
  40adc4:	8e030000 	lw	v1,0(s0)
  40adc8:	8f878784 	lw	a3,-30844(gp)
  40adcc:	8f99838c 	lw	t9,-31860(gp)
  40add0:	8c6d0008 	lw	t5,8(v1)
  40add4:	8c640024 	lw	a0,36(v1)
  40add8:	24050004 	li	a1,4
  40addc:	00003025 	move	a2,zero
  40ade0:	afa70034 	sw	a3,52(sp)
  40ade4:	0320f809 	jalr	t9
  40ade8:	afad0010 	sw	t5,16(sp)
  40adec:	8fbc0028 	lw	gp,40(sp)
  40adf0:	8e030000 	lw	v1,0(s0)
  40adf4:	8f99838c 	lw	t9,-31860(gp)
  40adf8:	8c6e0008 	lw	t6,8(v1)
  40adfc:	8fa70034 	lw	a3,52(sp)
  40ae00:	8c640028 	lw	a0,40(v1)
  40ae04:	24050004 	li	a1,4
  40ae08:	00003025 	move	a2,zero
  40ae0c:	0320f809 	jalr	t9
  40ae10:	afae0010 	sw	t6,16(sp)
  40ae14:	8fbf002c 	lw	ra,44(sp)
  40ae18:	8fbc0028 	lw	gp,40(sp)
  40ae1c:	8fb00020 	lw	s0,32(sp)
  40ae20:	8fb10024 	lw	s1,36(sp)
  40ae24:	03e00008 	jr	ra
  40ae28:	27bd00e8 	addiu	sp,sp,232
