# Function: createSelectedInfo
# Address: 0x0041be34 - 0x0041c1c4
# Size: 0x390 (912 bytes)
# End detected by: jr ra
# GP = 0x1001db30
#


fsn.original:     file format elf32-tradbigmips


Disassembly of section .text:

0041be34 <createSelectedInfo>:
  41be34:	3c1c0fc0 	lui	gp,0xfc0
  41be38:	279c1cfc 	addiu	gp,gp,7420
  41be3c:	0399e021 	addu	gp,gp,t9
  41be40:	27bdffc8 	addiu	sp,sp,-56
  41be44:	afb10024 	sw	s1,36(sp)
  41be48:	afa40038 	sw	a0,56(sp)
  41be4c:	8f9180a0 	lw	s1,-32608(gp)
  41be50:	8f84805c 	lw	a0,-32676(gp)
  41be54:	8f9983dc 	lw	t9,-31780(gp)
  41be58:	afb00020 	sw	s0,32(sp)
  41be5c:	00a08025 	move	s0,a1
  41be60:	afbf002c 	sw	ra,44(sp)
  41be64:	afbc0028 	sw	gp,40(sp)
  41be68:	afa60040 	sw	a2,64(sp)
  41be6c:	02202825 	move	a1,s1
  41be70:	0320f809 	jalr	t9
  41be74:	2484b1f4 	addiu	a0,a0,-19980
  41be78:	8fbc0028 	lw	gp,40(sp)
  41be7c:	02202825 	move	a1,s1
  41be80:	8f81806c 	lw	at,-32660(gp)
  41be84:	8f84805c 	lw	a0,-32676(gp)
  41be88:	8f9983dc 	lw	t9,-31780(gp)
  41be8c:	ac226b30 	sw	v0,27440(at)
  41be90:	0320f809 	jalr	t9
  41be94:	2484b200 	addiu	a0,a0,-19968
  41be98:	8fbc0028 	lw	gp,40(sp)
  41be9c:	02202825 	move	a1,s1
  41bea0:	8f81806c 	lw	at,-32660(gp)
  41bea4:	8f84805c 	lw	a0,-32676(gp)
  41bea8:	8f9983dc 	lw	t9,-31780(gp)
  41beac:	ac226b34 	sw	v0,27444(at)
  41beb0:	0320f809 	jalr	t9
  41beb4:	2484b210 	addiu	a0,a0,-19952
  41beb8:	8fbc0028 	lw	gp,40(sp)
  41bebc:	02202825 	move	a1,s1
  41bec0:	8f81806c 	lw	at,-32660(gp)
  41bec4:	8f84805c 	lw	a0,-32676(gp)
  41bec8:	8f9983dc 	lw	t9,-31780(gp)
  41becc:	ac226b38 	sw	v0,27448(at)
  41bed0:	0320f809 	jalr	t9
  41bed4:	2484b220 	addiu	a0,a0,-19936
  41bed8:	8fbc0028 	lw	gp,40(sp)
  41bedc:	02202825 	move	a1,s1
  41bee0:	8f81806c 	lw	at,-32660(gp)
  41bee4:	8f84805c 	lw	a0,-32676(gp)
  41bee8:	8f9983dc 	lw	t9,-31780(gp)
  41beec:	ac226b3c 	sw	v0,27452(at)
  41bef0:	0320f809 	jalr	t9
  41bef4:	2484b22c 	addiu	a0,a0,-19924
  41bef8:	8fbc0028 	lw	gp,40(sp)
  41befc:	02202825 	move	a1,s1
  41bf00:	8f81806c 	lw	at,-32660(gp)
  41bf04:	8f84805c 	lw	a0,-32676(gp)
  41bf08:	8f9983dc 	lw	t9,-31780(gp)
  41bf0c:	ac226b40 	sw	v0,27456(at)
  41bf10:	0320f809 	jalr	t9
  41bf14:	2484b23c 	addiu	a0,a0,-19908
  41bf18:	8fbc0028 	lw	gp,40(sp)
  41bf1c:	02202825 	move	a1,s1
  41bf20:	8f81806c 	lw	at,-32660(gp)
  41bf24:	8f84805c 	lw	a0,-32676(gp)
  41bf28:	8f9983dc 	lw	t9,-31780(gp)
  41bf2c:	ac226b44 	sw	v0,27460(at)
  41bf30:	0320f809 	jalr	t9
  41bf34:	2484b24c 	addiu	a0,a0,-19892
  41bf38:	8fbc0028 	lw	gp,40(sp)
  41bf3c:	02202825 	move	a1,s1
  41bf40:	8f81806c 	lw	at,-32660(gp)
  41bf44:	8f84805c 	lw	a0,-32676(gp)
  41bf48:	8f9983dc 	lw	t9,-31780(gp)
  41bf4c:	ac226b48 	sw	v0,27464(at)
  41bf50:	0320f809 	jalr	t9
  41bf54:	2484b258 	addiu	a0,a0,-19880
  41bf58:	8fbc0028 	lw	gp,40(sp)
  41bf5c:	02202825 	move	a1,s1
  41bf60:	8f81806c 	lw	at,-32660(gp)
  41bf64:	8f84805c 	lw	a0,-32676(gp)
  41bf68:	8f9983dc 	lw	t9,-31780(gp)
  41bf6c:	ac226b4c 	sw	v0,27468(at)
  41bf70:	0320f809 	jalr	t9
  41bf74:	2484b268 	addiu	a0,a0,-19864
  41bf78:	8fbc0028 	lw	gp,40(sp)
  41bf7c:	8fa40038 	lw	a0,56(sp)
  41bf80:	8f81806c 	lw	at,-32660(gp)
  41bf84:	8f85805c 	lw	a1,-32676(gp)
  41bf88:	8f99837c 	lw	t9,-31876(gp)
  41bf8c:	8fa70040 	lw	a3,64(sp)
  41bf90:	02003025 	move	a2,s0
  41bf94:	ac226b50 	sw	v0,27472(at)
  41bf98:	0320f809 	jalr	t9
  41bf9c:	24a5b278 	addiu	a1,a1,-19848
  41bfa0:	8fbc0028 	lw	gp,40(sp)
  41bfa4:	afa20034 	sw	v0,52(sp)
  41bfa8:	8f998388 	lw	t9,-31864(gp)
  41bfac:	00402025 	move	a0,v0
  41bfb0:	0320f809 	jalr	t9
  41bfb4:	00000000 	nop
  41bfb8:	8fbc0028 	lw	gp,40(sp)
  41bfbc:	24020001 	li	v0,1
  41bfc0:	8f8e80a0 	lw	t6,-32608(gp)
  41bfc4:	8f8f80a0 	lw	t7,-32608(gp)
  41bfc8:	8f9880a0 	lw	t8,-32608(gp)
  41bfcc:	25ce27b5 	addiu	t6,t6,10165
  41bfd0:	25ef1d63 	addiu	t7,t7,7523
  41bfd4:	27182375 	addiu	t8,t8,9077
  41bfd8:	ae0e0000 	sw	t6,0(s0)
  41bfdc:	ae020004 	sw	v0,4(s0)
  41bfe0:	ae0f0008 	sw	t7,8(s0)
  41bfe4:	ae02000c 	sw	v0,12(s0)
  41bfe8:	ae180010 	sw	t8,16(s0)
  41bfec:	ae020014 	sw	v0,20(s0)
  41bff0:	8f99821c 	lw	t9,-32228(gp)
  41bff4:	8f85805c 	lw	a1,-32676(gp)
  41bff8:	8fa40034 	lw	a0,52(sp)
  41bffc:	02003025 	move	a2,s0
  41c000:	24070003 	li	a3,3
  41c004:	0320f809 	jalr	t9
  41c008:	24a5b288 	addiu	a1,a1,-19832
  41c00c:	8fbc0028 	lw	gp,40(sp)
  41c010:	00000000 	nop
  41c014:	8f918984 	lw	s1,-30332(gp)
  41c018:	8f8580a0 	lw	a1,-32608(gp)
  41c01c:	8e390000 	lw	t9,0(s1)
  41c020:	8f86801c 	lw	a2,-32740(gp)
  41c024:	af22001c 	sw	v0,28(t9)
  41c028:	8e230000 	lw	v1,0(s1)
  41c02c:	8f9983ac 	lw	t9,-31828(gp)
  41c030:	8c64001c 	lw	a0,28(v1)
  41c034:	8c67000c 	lw	a3,12(v1)
  41c038:	24a5293d 	addiu	a1,a1,10557
  41c03c:	0320f809 	jalr	t9
  41c040:	24c6fb20 	addiu	a2,a2,-1248
  41c044:	8fbc0028 	lw	gp,40(sp)
  41c048:	8e230000 	lw	v1,0(s1)
  41c04c:	8f8580a0 	lw	a1,-32608(gp)
  41c050:	8f86801c 	lw	a2,-32740(gp)
  41c054:	8f9983ac 	lw	t9,-31828(gp)
  41c058:	8c64001c 	lw	a0,28(v1)
  41c05c:	8c67000c 	lw	a3,12(v1)
  41c060:	24a5124b 	addiu	a1,a1,4683
  41c064:	0320f809 	jalr	t9
  41c068:	24c6fcc0 	addiu	a2,a2,-832
  41c06c:	8fbc0028 	lw	gp,40(sp)
  41c070:	8e230000 	lw	v1,0(s1)
  41c074:	8f87801c 	lw	a3,-32740(gp)
  41c078:	8f99838c 	lw	t9,-31860(gp)
  41c07c:	8c68000c 	lw	t0,12(v1)
  41c080:	8c64001c 	lw	a0,28(v1)
  41c084:	24050010 	li	a1,16
  41c088:	00003025 	move	a2,zero
  41c08c:	24e7fa18 	addiu	a3,a3,-1512
  41c090:	0320f809 	jalr	t9
  41c094:	afa80010 	sw	t0,16(sp)
  41c098:	8fbc0028 	lw	gp,40(sp)
  41c09c:	8e290000 	lw	t1,0(s1)
  41c0a0:	8f87801c 	lw	a3,-32740(gp)
  41c0a4:	8f99838c 	lw	t9,-31860(gp)
  41c0a8:	8d24001c 	lw	a0,28(t1)
  41c0ac:	afa00010 	sw	zero,16(sp)
  41c0b0:	24050020 	li	a1,32
  41c0b4:	00003025 	move	a2,zero
  41c0b8:	0320f809 	jalr	t9
  41c0bc:	24e7fadc 	addiu	a3,a3,-1316
  41c0c0:	8fbc0028 	lw	gp,40(sp)
  41c0c4:	8e230000 	lw	v1,0(s1)
  41c0c8:	8f99838c 	lw	t9,-31860(gp)
  41c0cc:	8c6a000c 	lw	t2,12(v1)
  41c0d0:	8f878784 	lw	a3,-30844(gp)
  41c0d4:	8c64001c 	lw	a0,28(v1)
  41c0d8:	24050004 	li	a1,4
  41c0dc:	00003025 	move	a2,zero
  41c0e0:	0320f809 	jalr	t9
  41c0e4:	afaa0010 	sw	t2,16(sp)
  41c0e8:	8fbc0028 	lw	gp,40(sp)
  41c0ec:	8e2b0000 	lw	t3,0(s1)
  41c0f0:	8f998388 	lw	t9,-31864(gp)
  41c0f4:	8d64001c 	lw	a0,28(t3)
  41c0f8:	0320f809 	jalr	t9
  41c0fc:	00000000 	nop
  41c100:	8fbc0028 	lw	gp,40(sp)
  41c104:	240d0003 	li	t5,3
  41c108:	8f8c80a0 	lw	t4,-32608(gp)
  41c10c:	8f8e80a0 	lw	t6,-32608(gp)
  41c110:	258c27b5 	addiu	t4,t4,10165
  41c114:	25ce2841 	addiu	t6,t6,10305
  41c118:	ae0c0000 	sw	t4,0(s0)
  41c11c:	ae0d0004 	sw	t5,4(s0)
  41c120:	ae0e0008 	sw	t6,8(s0)
  41c124:	8e2f0000 	lw	t7,0(s1)
  41c128:	8f9980a0 	lw	t9,-32608(gp)
  41c12c:	8df8001c 	lw	t8,28(t7)
  41c130:	8f8880a0 	lw	t0,-32608(gp)
  41c134:	8f8980a0 	lw	t1,-32608(gp)
  41c138:	24020001 	li	v0,1
  41c13c:	8f8a8a08 	lw	t2,-30200(gp)
  41c140:	27391d63 	addiu	t9,t9,7523
  41c144:	25082375 	addiu	t0,t0,9077
  41c148:	25291d4d 	addiu	t1,t1,7501
  41c14c:	ae190010 	sw	t9,16(s0)
  41c150:	ae020014 	sw	v0,20(s0)
  41c154:	ae080018 	sw	t0,24(s0)
  41c158:	ae02001c 	sw	v0,28(s0)
  41c15c:	ae090020 	sw	t1,32(s0)
  41c160:	ae18000c 	sw	t8,12(s0)
  41c164:	8d4a0000 	lw	t2,0(t2)
  41c168:	8f85805c 	lw	a1,-32676(gp)
  41c16c:	ae0a0024 	sw	t2,36(s0)
  41c170:	8f9983d8 	lw	t9,-31784(gp)
  41c174:	8fa40034 	lw	a0,52(sp)
  41c178:	02003025 	move	a2,s0
  41c17c:	24070005 	li	a3,5
  41c180:	0320f809 	jalr	t9
  41c184:	24a5b294 	addiu	a1,a1,-19820
  41c188:	8e2b0000 	lw	t3,0(s1)
  41c18c:	8fbc0028 	lw	gp,40(sp)
  41c190:	ad620020 	sw	v0,32(t3)
  41c194:	8e2c0000 	lw	t4,0(s1)
  41c198:	8f998388 	lw	t9,-31864(gp)
  41c19c:	8d840020 	lw	a0,32(t4)
  41c1a0:	0320f809 	jalr	t9
  41c1a4:	00000000 	nop
  41c1a8:	8fbf002c 	lw	ra,44(sp)
  41c1ac:	8fbc0028 	lw	gp,40(sp)
  41c1b0:	8fa20034 	lw	v0,52(sp)
  41c1b4:	8fb00020 	lw	s0,32(sp)
  41c1b8:	8fb10024 	lw	s1,36(sp)
  41c1bc:	03e00008 	jr	ra
  41c1c0:	27bd0038 	addiu	sp,sp,56
