# Function: FUN_00410f74
# Address: 0x00410f74 - 0x00411088
# Size: 0x114 (276 bytes)
# End detected by: jr ra
# GP = 0x1001db30
#


fsn.original:     file format elf32-tradbigmips


Disassembly of section .text:

00410f74 <error+0xc>:
  410f74:	8f9983dc 	lw	t9,-31780(gp)
  410f78:	27bdff80 	addiu	sp,sp,-128
  410f7c:	afbf001c 	sw	ra,28(sp)
  410f80:	8f8580a0 	lw	a1,-32608(gp)
  410f84:	0320f809 	jalr	t9
  410f88:	afbc0018 	sw	gp,24(sp)
  410f8c:	8fbc0018 	lw	gp,24(sp)
  410f90:	afa2007c 	sw	v0,124(sp)
  410f94:	8f8e80a0 	lw	t6,-32608(gp)
  410f98:	8f848a10 	lw	a0,-30192(gp)
  410f9c:	8f85805c 	lw	a1,-32676(gp)
  410fa0:	8f998140 	lw	t9,-32448(gp)
  410fa4:	25ce1f78 	addiu	t6,t6,8056
  410fa8:	8c840000 	lw	a0,0(a0)
  410fac:	afae002c 	sw	t6,44(sp)
  410fb0:	afa20030 	sw	v0,48(sp)
  410fb4:	27a6002c 	addiu	a2,sp,44
  410fb8:	24070001 	li	a3,1
  410fbc:	0320f809 	jalr	t9
  410fc0:	24a5a6cc 	addiu	a1,a1,-22836
  410fc4:	8fbc0018 	lw	gp,24(sp)
  410fc8:	afa20024 	sw	v0,36(sp)
  410fcc:	8f998150 	lw	t9,-32432(gp)
  410fd0:	00402025 	move	a0,v0
  410fd4:	0320f809 	jalr	t9
  410fd8:	24050002 	li	a1,2
  410fdc:	8fbc0018 	lw	gp,24(sp)
  410fe0:	00402025 	move	a0,v0
  410fe4:	8f998490 	lw	t9,-31600(gp)
  410fe8:	00000000 	nop
  410fec:	0320f809 	jalr	t9
  410ff0:	00000000 	nop
  410ff4:	8fbc0018 	lw	gp,24(sp)
  410ff8:	8fa40024 	lw	a0,36(sp)
  410ffc:	8f998150 	lw	t9,-32432(gp)
  411000:	24050007 	li	a1,7
  411004:	0320f809 	jalr	t9
  411008:	00000000 	nop
  41100c:	8fbc0018 	lw	gp,24(sp)
  411010:	00402025 	move	a0,v0
  411014:	8f998490 	lw	t9,-31600(gp)
  411018:	00000000 	nop
  41101c:	0320f809 	jalr	t9
  411020:	00000000 	nop
  411024:	8fbc0018 	lw	gp,24(sp)
  411028:	8fa40024 	lw	a0,36(sp)
  41102c:	8f8580a4 	lw	a1,-32604(gp)
  411030:	8f868018 	lw	a2,-32744(gp)
  411034:	8f9983ac 	lw	t9,-31828(gp)
  411038:	00003825 	move	a3,zero
  41103c:	24a500a9 	addiu	a1,a1,169
  411040:	0320f809 	jalr	t9
  411044:	24c60f30 	addiu	a2,a2,3888
  411048:	8fbc0018 	lw	gp,24(sp)
  41104c:	8fa40024 	lw	a0,36(sp)
  411050:	8f998388 	lw	t9,-31864(gp)
  411054:	00000000 	nop
  411058:	0320f809 	jalr	t9
  41105c:	00000000 	nop
  411060:	8fbc0018 	lw	gp,24(sp)
  411064:	8fa4007c 	lw	a0,124(sp)
  411068:	8f998178 	lw	t9,-32392(gp)
  41106c:	00000000 	nop
  411070:	0320f809 	jalr	t9
  411074:	00000000 	nop
  411078:	8fbf001c 	lw	ra,28(sp)
  41107c:	8fbc0018 	lw	gp,24(sp)
  411080:	03e00008 	jr	ra
  411084:	27bd0080 	addiu	sp,sp,128
