# Function: FUN_00427300
# Address: 0x00427300 - 0x00427570
# Size: 0x270 (624 bytes)
# End detected by: jr ra
# GP = 0x1001db30
#


fsn.original:     file format elf32-tradbigmips


Disassembly of section .text:

00427300 <checkPointerFile+0xc>:
  427300:	8f83806c 	lw	v1,-32660(gp)
  427304:	27bdffe0 	addiu	sp,sp,-32
  427308:	24636c60 	addiu	v1,v1,27744
  42730c:	8c6e0000 	lw	t6,0(v1)
  427310:	afbf001c 	sw	ra,28(sp)
  427314:	148e0048 	bne	a0,t6,427438 <checkPointerFile+0x144>
  427318:	afbc0018 	sw	gp,24(sp)
  42731c:	8f9984b8 	lw	t9,-31560(gp)
  427320:	00000000 	nop
  427324:	0320f809 	jalr	t9
  427328:	00000000 	nop
  42732c:	8fbc0018 	lw	gp,24(sp)
  427330:	24060000 	li	a2,0
  427334:	8f83806c 	lw	v1,-32660(gp)
  427338:	8f848a24 	lw	a0,-30172(gp)
  42733c:	24636c60 	addiu	v1,v1,27744
  427340:	8c620004 	lw	v0,4(v1)
  427344:	c4840070 	lwc1	$f4,112(a0)
  427348:	c4880074 	lwc1	$f8,116(a0)
  42734c:	c4520014 	lwc1	$f18,20(v0)
  427350:	460021a1 	cvt.d.s	$f6,$f4
  427354:	460042a1 	cvt.d.s	$f10,$f8
  427358:	462a3400 	add.d	$f16,$f6,$f10
  42735c:	8f9984a0 	lw	t9,-31584(gp)
  427360:	46009121 	cvt.d.s	$f4,$f18
  427364:	46302201 	sub.d	$f8,$f4,$f16
  427368:	c44e0018 	lwc1	$f14,24(v0)
  42736c:	0320f809 	jalr	t9
  427370:	46204320 	cvt.s.d	$f12,$f8
  427374:	8fbc0018 	lw	gp,24(sp)
  427378:	3c063f80 	lui	a2,0x3f80
  42737c:	8f818a24 	lw	at,-30172(gp)
  427380:	8f998494 	lw	t9,-31596(gp)
  427384:	c42c0070 	lwc1	$f12,112(at)
  427388:	0320f809 	jalr	t9
  42738c:	46006386 	mov.s	$f14,$f12
  427390:	8fbc0018 	lw	gp,24(sp)
  427394:	00000000 	nop
  427398:	8f9982dc 	lw	t9,-32036(gp)
  42739c:	00000000 	nop
  4273a0:	0320f809 	jalr	t9
  4273a4:	00000000 	nop
  4273a8:	8fbc0018 	lw	gp,24(sp)
  4273ac:	00000000 	nop
  4273b0:	8f848068 	lw	a0,-32664(gp)
  4273b4:	8f9981f8 	lw	t9,-32264(gp)
  4273b8:	24846f28 	addiu	a0,a0,28456
  4273bc:	0320f809 	jalr	t9
  4273c0:	00000000 	nop
  4273c4:	8fbc0018 	lw	gp,24(sp)
  4273c8:	00000000 	nop
  4273cc:	8f848068 	lw	a0,-32664(gp)
  4273d0:	8f9981f8 	lw	t9,-32264(gp)
  4273d4:	24846f30 	addiu	a0,a0,28464
  4273d8:	0320f809 	jalr	t9
  4273dc:	00000000 	nop
  4273e0:	8fbc0018 	lw	gp,24(sp)
  4273e4:	00000000 	nop
  4273e8:	8f848068 	lw	a0,-32664(gp)
  4273ec:	8f9981f8 	lw	t9,-32264(gp)
  4273f0:	24846f38 	addiu	a0,a0,28472
  4273f4:	0320f809 	jalr	t9
  4273f8:	00000000 	nop
  4273fc:	8fbc0018 	lw	gp,24(sp)
  427400:	00000000 	nop
  427404:	8f9982e0 	lw	t9,-32032(gp)
  427408:	00000000 	nop
  42740c:	0320f809 	jalr	t9
  427410:	00000000 	nop
  427414:	8fbc0018 	lw	gp,24(sp)
  427418:	00000000 	nop
  42741c:	8f9984d8 	lw	t9,-31528(gp)
  427420:	00000000 	nop
  427424:	0320f809 	jalr	t9
  427428:	00000000 	nop
  42742c:	8fbc0018 	lw	gp,24(sp)
  427430:	1000004c 	b	427564 <checkPointerFile+0x270>
  427434:	8fbf001c 	lw	ra,28(sp)
  427438:	8c6f0004 	lw	t7,4(v1)
  42743c:	00000000 	nop
  427440:	148f0048 	bne	a0,t7,427564 <checkPointerFile+0x270>
  427444:	8fbf001c 	lw	ra,28(sp)
  427448:	8f9984b8 	lw	t9,-31560(gp)
  42744c:	00000000 	nop
  427450:	0320f809 	jalr	t9
  427454:	00000000 	nop
  427458:	8fbc0018 	lw	gp,24(sp)
  42745c:	24060000 	li	a2,0
  427460:	8f83806c 	lw	v1,-32660(gp)
  427464:	8f848a24 	lw	a0,-30172(gp)
  427468:	24636c60 	addiu	v1,v1,27744
  42746c:	8c620000 	lw	v0,0(v1)
  427470:	c4860070 	lwc1	$f6,112(a0)
  427474:	c4920074 	lwc1	$f18,116(a0)
  427478:	c4480014 	lwc1	$f8,20(v0)
  42747c:	460032a1 	cvt.d.s	$f10,$f6
  427480:	46009121 	cvt.d.s	$f4,$f18
  427484:	46245400 	add.d	$f16,$f10,$f4
  427488:	8f9984a0 	lw	t9,-31584(gp)
  42748c:	460041a1 	cvt.d.s	$f6,$f8
  427490:	46303480 	add.d	$f18,$f6,$f16
  427494:	c44e0018 	lwc1	$f14,24(v0)
  427498:	0320f809 	jalr	t9
  42749c:	46209320 	cvt.s.d	$f12,$f18
  4274a0:	8fbc0018 	lw	gp,24(sp)
  4274a4:	3c063f80 	lui	a2,0x3f80
  4274a8:	8f818a24 	lw	at,-30172(gp)
  4274ac:	8f998494 	lw	t9,-31596(gp)
  4274b0:	c42c0070 	lwc1	$f12,112(at)
  4274b4:	0320f809 	jalr	t9
  4274b8:	46006386 	mov.s	$f14,$f12
  4274bc:	8fbc0018 	lw	gp,24(sp)
  4274c0:	00000000 	nop
  4274c4:	8f9982dc 	lw	t9,-32036(gp)
  4274c8:	00000000 	nop
  4274cc:	0320f809 	jalr	t9
  4274d0:	00000000 	nop
  4274d4:	8fbc0018 	lw	gp,24(sp)
  4274d8:	00000000 	nop
  4274dc:	8f848068 	lw	a0,-32664(gp)
  4274e0:	8f9981f8 	lw	t9,-32264(gp)
  4274e4:	24846f10 	addiu	a0,a0,28432
  4274e8:	0320f809 	jalr	t9
  4274ec:	00000000 	nop
  4274f0:	8fbc0018 	lw	gp,24(sp)
  4274f4:	00000000 	nop
  4274f8:	8f848068 	lw	a0,-32664(gp)
  4274fc:	8f9981f8 	lw	t9,-32264(gp)
  427500:	24846f18 	addiu	a0,a0,28440
  427504:	0320f809 	jalr	t9
  427508:	00000000 	nop
  42750c:	8fbc0018 	lw	gp,24(sp)
  427510:	00000000 	nop
  427514:	8f848068 	lw	a0,-32664(gp)
  427518:	8f9981f8 	lw	t9,-32264(gp)
  42751c:	24846f20 	addiu	a0,a0,28448
  427520:	0320f809 	jalr	t9
  427524:	00000000 	nop
  427528:	8fbc0018 	lw	gp,24(sp)
  42752c:	00000000 	nop
  427530:	8f9982e0 	lw	t9,-32032(gp)
  427534:	00000000 	nop
  427538:	0320f809 	jalr	t9
  42753c:	00000000 	nop
  427540:	8fbc0018 	lw	gp,24(sp)
  427544:	00000000 	nop
  427548:	8f9984d8 	lw	t9,-31528(gp)
  42754c:	00000000 	nop
  427550:	0320f809 	jalr	t9
  427554:	00000000 	nop
  427558:	8fbc0018 	lw	gp,24(sp)
  42755c:	00000000 	nop
  427560:	8fbf001c 	lw	ra,28(sp)
  427564:	27bd0020 	addiu	sp,sp,32
  427568:	03e00008 	jr	ra
  42756c:	00000000 	nop
