# Function: pickLandscape
# Address: 0x00426310 - 0x004268d4
# Size: 0x5c4 (1476 bytes)
# End detected by: jr ra
# GP = 0x1001db30
#


fsn.original:     file format elf32-tradbigmips


Disassembly of section .text:

00426310 <pickLandscape>:
  426310:	3c1c0fbf 	lui	gp,0xfbf
  426314:	279c7820 	addiu	gp,gp,30752
  426318:	0399e021 	addu	gp,gp,t9
  42631c:	27bdf7b8 	addiu	sp,sp,-2120
  426320:	8f9984b8 	lw	t9,-31560(gp)
  426324:	afbf0034 	sw	ra,52(sp)
  426328:	afb6002c 	sw	s6,44(sp)
  42632c:	afb50028 	sw	s5,40(sp)
  426330:	240effff 	li	t6,-1
  426334:	afbc0030 	sw	gp,48(sp)
  426338:	afb40024 	sw	s4,36(sp)
  42633c:	afb30020 	sw	s3,32(sp)
  426340:	afb2001c 	sw	s2,28(sp)
  426344:	afb10018 	sw	s1,24(sp)
  426348:	afb00014 	sw	s0,20(sp)
  42634c:	afa40848 	sw	a0,2120(sp)
  426350:	afa5084c 	sw	a1,2124(sp)
  426354:	afa60850 	sw	a2,2128(sp)
  426358:	afa00844 	sw	zero,2116(sp)
  42635c:	afa00840 	sw	zero,2112(sp)
  426360:	afa0083c 	sw	zero,2108(sp)
  426364:	2416ffff 	li	s6,-1
  426368:	2415ffff 	li	s5,-1
  42636c:	0320f809 	jalr	t9
  426370:	afae004c 	sw	t6,76(sp)
  426374:	8fbc0030 	lw	gp,48(sp)
  426378:	00000000 	nop
  42637c:	8f998220 	lw	t9,-32224(gp)
  426380:	00000000 	nop
  426384:	0320f809 	jalr	t9
  426388:	00000000 	nop
  42638c:	8fbc0030 	lw	gp,48(sp)
  426390:	24040005 	li	a0,5
  426394:	8f998230 	lw	t9,-32208(gp)
  426398:	24050005 	li	a1,5
  42639c:	0320f809 	jalr	t9
  4263a0:	00000000 	nop
  4263a4:	8fbc0030 	lw	gp,48(sp)
  4263a8:	27a40454 	addiu	a0,sp,1108
  4263ac:	8f99822c 	lw	t9,-32212(gp)
  4263b0:	240501f4 	li	a1,500
  4263b4:	0320f809 	jalr	t9
  4263b8:	00000000 	nop
  4263bc:	8fbc0030 	lw	gp,48(sp)
  4263c0:	00000000 	nop
  4263c4:	8f998524 	lw	t9,-31452(gp)
  4263c8:	00000000 	nop
  4263cc:	0320f809 	jalr	t9
  4263d0:	00000000 	nop
  4263d4:	8fbc0030 	lw	gp,48(sp)
  4263d8:	3c013f80 	lui	at,0x3f80
  4263dc:	8f90897c 	lw	s0,-30340(gp)
  4263e0:	44817000 	mtc1	at,$f14
  4263e4:	8e0f0000 	lw	t7,0(s0)
  4263e8:	3c013ff0 	lui	at,0x3ff0
  4263ec:	c5e60034 	lwc1	$f6,52(t7)
  4263f0:	44812800 	mtc1	at,$f5
  4263f4:	44802000 	mtc1	zero,$f4
  4263f8:	46003221 	cvt.d.s	$f8,$f6
  4263fc:	00000000 	nop
  426400:	46282283 	div.d	$f10,$f4,$f8
  426404:	8f998494 	lw	t9,-31596(gp)
  426408:	44067000 	mfc1	a2,$f14
  42640c:	0320f809 	jalr	t9
  426410:	46205320 	cvt.s.d	$f12,$f10
  426414:	8fbc0030 	lw	gp,48(sp)
  426418:	8e180000 	lw	t8,0(s0)
  42641c:	8f998498 	lw	t9,-31592(gp)
  426420:	8704000e 	lh	a0,14(t8)
  426424:	0320f809 	jalr	t9
  426428:	24050078 	li	a1,120
  42642c:	8e190000 	lw	t9,0(s0)
  426430:	8fbc0030 	lw	gp,48(sp)
  426434:	8724000c 	lh	a0,12(t9)
  426438:	8f998498 	lw	t9,-31592(gp)
  42643c:	2405007a 	li	a1,122
  426440:	0320f809 	jalr	t9
  426444:	00000000 	nop
  426448:	8e020000 	lw	v0,0(s0)
  42644c:	8fbc0030 	lw	gp,48(sp)
  426450:	c4500018 	lwc1	$f16,24(v0)
  426454:	c4460020 	lwc1	$f6,32(v0)
  426458:	460084a1 	cvt.d.s	$f18,$f16
  42645c:	46003121 	cvt.d.s	$f4,$f6
  426460:	46249202 	mul.d	$f8,$f18,$f4
  426464:	c44a0008 	lwc1	$f10,8(v0)
  426468:	c4520004 	lwc1	$f18,4(v0)
  42646c:	46005421 	cvt.d.s	$f16,$f10
  426470:	8f918a24 	lw	s1,-30172(gp)
  426474:	46304182 	mul.d	$f6,$f8,$f16
  426478:	c6280108 	lwc1	$f8,264(s1)
  42647c:	46009121 	cvt.d.s	$f4,$f18
  426480:	46004421 	cvt.d.s	$f16,$f8
  426484:	8f99849c 	lw	t9,-31588(gp)
  426488:	46262281 	sub.d	$f10,$f4,$f6
  42648c:	c62c0104 	lwc1	$f12,260(s1)
  426490:	46305483 	div.d	$f18,$f10,$f16
  426494:	0320f809 	jalr	t9
  426498:	462093a0 	cvt.s.d	$f14,$f18
  42649c:	8fbc0030 	lw	gp,48(sp)
  4264a0:	3c013f80 	lui	at,0x3f80
  4264a4:	44817000 	mtc1	at,$f14
  4264a8:	8f998494 	lw	t9,-31596(gp)
  4264ac:	44067000 	mfc1	a2,$f14
  4264b0:	0320f809 	jalr	t9
  4264b4:	46000306 	mov.s	$f12,$f0
  4264b8:	8e020000 	lw	v0,0(s0)
  4264bc:	8fbc0030 	lw	gp,48(sp)
  4264c0:	c4440008 	lwc1	$f4,8(v0)
  4264c4:	c44c0000 	lwc1	$f12,0(v0)
  4264c8:	c44e0004 	lwc1	$f14,4(v0)
  4264cc:	8f9984a0 	lw	t9,-31584(gp)
  4264d0:	46002187 	neg.s	$f6,$f4
  4264d4:	44063000 	mfc1	a2,$f6
  4264d8:	46006307 	neg.s	$f12,$f12
  4264dc:	0320f809 	jalr	t9
  4264e0:	46007387 	neg.s	$f14,$f14
  4264e4:	8fbc0030 	lw	gp,48(sp)
  4264e8:	24040001 	li	a0,1
  4264ec:	8f9986c8 	lw	t9,-31032(gp)
  4264f0:	00000000 	nop
  4264f4:	0320f809 	jalr	t9
  4264f8:	00000000 	nop
  4264fc:	8fbc0030 	lw	gp,48(sp)
  426500:	27a40454 	addiu	a0,sp,1108
  426504:	8f998228 	lw	t9,-32216(gp)
  426508:	00000000 	nop
  42650c:	0320f809 	jalr	t9
  426510:	00000000 	nop
  426514:	8fbc0030 	lw	gp,48(sp)
  426518:	0040a025 	move	s4,v0
  42651c:	8f9984d8 	lw	t9,-31528(gp)
  426520:	00000000 	nop
  426524:	0320f809 	jalr	t9
  426528:	00000000 	nop
  42652c:	8fbc0030 	lw	gp,48(sp)
  426530:	00000000 	nop
  426534:	8f9984b8 	lw	t9,-31560(gp)
  426538:	00000000 	nop
  42653c:	0320f809 	jalr	t9
  426540:	00000000 	nop
  426544:	8fbc0030 	lw	gp,48(sp)
  426548:	00000000 	nop
  42654c:	8f998220 	lw	t9,-32224(gp)
  426550:	00000000 	nop
  426554:	0320f809 	jalr	t9
  426558:	00000000 	nop
  42655c:	8fbc0030 	lw	gp,48(sp)
  426560:	27a4006c 	addiu	a0,sp,108
  426564:	8f99822c 	lw	t9,-32212(gp)
  426568:	240501f4 	li	a1,500
  42656c:	0320f809 	jalr	t9
  426570:	00000000 	nop
  426574:	8fbc0030 	lw	gp,48(sp)
  426578:	00000000 	nop
  42657c:	8f998524 	lw	t9,-31452(gp)
  426580:	00000000 	nop
  426584:	0320f809 	jalr	t9
  426588:	00000000 	nop
  42658c:	8e080000 	lw	t0,0(s0)
  426590:	3c013f80 	lui	at,0x3f80
  426594:	44817000 	mtc1	at,$f14
  426598:	c50a0034 	lwc1	$f10,52(t0)
  42659c:	3c013ff0 	lui	at,0x3ff0
  4265a0:	44814800 	mtc1	at,$f9
  4265a4:	44804000 	mtc1	zero,$f8
  4265a8:	46005421 	cvt.d.s	$f16,$f10
  4265ac:	00000000 	nop
  4265b0:	46304483 	div.d	$f18,$f8,$f16
  4265b4:	8fbc0030 	lw	gp,48(sp)
  4265b8:	44067000 	mfc1	a2,$f14
  4265bc:	8f998494 	lw	t9,-31596(gp)
  4265c0:	00000000 	nop
  4265c4:	0320f809 	jalr	t9
  4265c8:	46209320 	cvt.s.d	$f12,$f18
  4265cc:	8fbc0030 	lw	gp,48(sp)
  4265d0:	8e090000 	lw	t1,0(s0)
  4265d4:	8f998498 	lw	t9,-31592(gp)
  4265d8:	8524000e 	lh	a0,14(t1)
  4265dc:	0320f809 	jalr	t9
  4265e0:	24050078 	li	a1,120
  4265e4:	8fbc0030 	lw	gp,48(sp)
  4265e8:	8e0a0000 	lw	t2,0(s0)
  4265ec:	8f998498 	lw	t9,-31592(gp)
  4265f0:	8544000c 	lh	a0,12(t2)
  4265f4:	0320f809 	jalr	t9
  4265f8:	2405007a 	li	a1,122
  4265fc:	8e020000 	lw	v0,0(s0)
  426600:	8fbc0030 	lw	gp,48(sp)
  426604:	c4440018 	lwc1	$f4,24(v0)
  426608:	c44a0020 	lwc1	$f10,32(v0)
  42660c:	460021a1 	cvt.d.s	$f6,$f4
  426610:	46005221 	cvt.d.s	$f8,$f10
  426614:	46283402 	mul.d	$f16,$f6,$f8
  426618:	c4520008 	lwc1	$f18,8(v0)
  42661c:	c4460004 	lwc1	$f6,4(v0)
  426620:	46009121 	cvt.d.s	$f4,$f18
  426624:	8f99849c 	lw	t9,-31588(gp)
  426628:	46248282 	mul.d	$f10,$f16,$f4
  42662c:	c6300108 	lwc1	$f16,264(s1)
  426630:	46003221 	cvt.d.s	$f8,$f6
  426634:	46008121 	cvt.d.s	$f4,$f16
  426638:	c62c0104 	lwc1	$f12,260(s1)
  42663c:	462a4481 	sub.d	$f18,$f8,$f10
  426640:	00000000 	nop
  426644:	46249183 	div.d	$f6,$f18,$f4
  426648:	0320f809 	jalr	t9
  42664c:	462033a0 	cvt.s.d	$f14,$f6
  426650:	8fbc0030 	lw	gp,48(sp)
  426654:	3c013f80 	lui	at,0x3f80
  426658:	8f998494 	lw	t9,-31596(gp)
  42665c:	44817000 	mtc1	at,$f14
  426660:	46000306 	mov.s	$f12,$f0
  426664:	0320f809 	jalr	t9
  426668:	3c063f80 	lui	a2,0x3f80
  42666c:	8e020000 	lw	v0,0(s0)
  426670:	8fbc0030 	lw	gp,48(sp)
  426674:	c4480008 	lwc1	$f8,8(v0)
  426678:	c44c0000 	lwc1	$f12,0(v0)
  42667c:	c44e0004 	lwc1	$f14,4(v0)
  426680:	8f9984a0 	lw	t9,-31584(gp)
  426684:	46004287 	neg.s	$f10,$f8
  426688:	44065000 	mfc1	a2,$f10
  42668c:	46006307 	neg.s	$f12,$f12
  426690:	0320f809 	jalr	t9
  426694:	46007387 	neg.s	$f14,$f14
  426698:	8fbc0030 	lw	gp,48(sp)
  42669c:	00008025 	move	s0,zero
  4266a0:	1a80001a 	blez	s4,42670c <pickLandscape+0x3fc>
  4266a4:	00009025 	move	s2,zero
  4266a8:	24130001 	li	s3,1
  4266ac:	00105840 	sll	t3,s0,0x1
  4266b0:	27ac0454 	addiu	t4,sp,1108
  4266b4:	016c1021 	addu	v0,t3,t4
  4266b8:	84510000 	lh	s1,0(v0)
  4266bc:	24420002 	addiu	v0,v0,2
  4266c0:	1633000d 	bne	s1,s3,4266f8 <pickLandscape+0x3e8>
  4266c4:	26100001 	addiu	s0,s0,1
  4266c8:	8f998584 	lw	t9,-31356(gp)
  4266cc:	84440000 	lh	a0,0(v0)
  4266d0:	0320f809 	jalr	t9
  4266d4:	00000000 	nop
  4266d8:	8fbc0030 	lw	gp,48(sp)
  4266dc:	00402025 	move	a0,v0
  4266e0:	8f9986d8 	lw	t9,-31016(gp)
  4266e4:	00000000 	nop
  4266e8:	0320f809 	jalr	t9
  4266ec:	00000000 	nop
  4266f0:	8fbc0030 	lw	gp,48(sp)
  4266f4:	00000000 	nop
  4266f8:	26520001 	addiu	s2,s2,1
  4266fc:	1654ffeb 	bne	s2,s4,4266ac <pickLandscape+0x39c>
  426700:	02118021 	addu	s0,s0,s1
  426704:	00008025 	move	s0,zero
  426708:	00009025 	move	s2,zero
  42670c:	8f84892c 	lw	a0,-30420(gp)
  426710:	8f99801c 	lw	t9,-32740(gp)
  426714:	8c840000 	lw	a0,0(a0)
  426718:	27396244 	addiu	t9,t9,25156
  42671c:	0320f809 	jalr	t9
  426720:	24130001 	li	s3,1
  426724:	8fbc0030 	lw	gp,48(sp)
  426728:	27a4006c 	addiu	a0,sp,108
  42672c:	8f998228 	lw	t9,-32216(gp)
  426730:	00000000 	nop
  426734:	0320f809 	jalr	t9
  426738:	00000000 	nop
  42673c:	8fbc0030 	lw	gp,48(sp)
  426740:	0040a025 	move	s4,v0
  426744:	8f9984d8 	lw	t9,-31528(gp)
  426748:	00000000 	nop
  42674c:	0320f809 	jalr	t9
  426750:	00000000 	nop
  426754:	8fbc0030 	lw	gp,48(sp)
  426758:	1a800026 	blez	s4,4267f4 <pickLandscape+0x4e4>
  42675c:	27a6006c 	addiu	a2,sp,108
  426760:	24050003 	li	a1,3
  426764:	24040002 	li	a0,2
  426768:	00106840 	sll	t5,s0,0x1
  42676c:	00cd1021 	addu	v0,a2,t5
  426770:	84510000 	lh	s1,0(v0)
  426774:	24420002 	addiu	v0,v0,2
  426778:	16240010 	bne	s1,a0,4267bc <pickLandscape+0x4ac>
  42677c:	26100001 	addiu	s0,s0,1
  426780:	84430000 	lh	v1,0(v0)
  426784:	00000000 	nop
  426788:	16630006 	bne	s3,v1,4267a4 <pickLandscape+0x494>
  42678c:	00000000 	nop
  426790:	06c1000a 	bgez	s6,4267bc <pickLandscape+0x4ac>
  426794:	00000000 	nop
  426798:	84560002 	lh	s6,2(v0)
  42679c:	10000007 	b	4267bc <pickLandscape+0x4ac>
  4267a0:	00000000 	nop
  4267a4:	14830005 	bne	a0,v1,4267bc <pickLandscape+0x4ac>
  4267a8:	00000000 	nop
  4267ac:	06a10003 	bgez	s5,4267bc <pickLandscape+0x4ac>
  4267b0:	00000000 	nop
  4267b4:	84550002 	lh	s5,2(v0)
  4267b8:	00000000 	nop
  4267bc:	1625000a 	bne	s1,a1,4267e8 <pickLandscape+0x4d8>
  4267c0:	00000000 	nop
  4267c4:	a4440000 	sh	a0,0(v0)
  4267c8:	844e0000 	lh	t6,0(v0)
  4267cc:	00000000 	nop
  4267d0:	11c00006 	beqz	t6,4267ec <pickLandscape+0x4dc>
  4267d4:	26520001 	addiu	s2,s2,1
  4267d8:	844f0004 	lh	t7,4(v0)
  4267dc:	84550002 	lh	s5,2(v0)
  4267e0:	10000004 	b	4267f4 <pickLandscape+0x4e4>
  4267e4:	afaf004c 	sw	t7,76(sp)
  4267e8:	26520001 	addiu	s2,s2,1
  4267ec:	1654ffde 	bne	s2,s4,426768 <pickLandscape+0x458>
  4267f0:	02118021 	addu	s0,s0,s1
  4267f4:	8fb8004c 	lw	t8,76(sp)
  4267f8:	00000000 	nop
  4267fc:	0700000e 	bltz	t8,426838 <pickLandscape+0x528>
  426800:	00000000 	nop
  426804:	8f998584 	lw	t9,-31356(gp)
  426808:	02a02025 	move	a0,s5
  42680c:	0320f809 	jalr	t9
  426810:	00000000 	nop
  426814:	8fa8004c 	lw	t0,76(sp)
  426818:	afa20844 	sw	v0,2116(sp)
  42681c:	8c590010 	lw	t9,16(v0)
  426820:	00084880 	sll	t1,t0,0x2
  426824:	03295021 	addu	t2,t9,t1
  426828:	8d4b0000 	lw	t3,0(t2)
  42682c:	8fbc0030 	lw	gp,48(sp)
  426830:	10000012 	b	42687c <pickLandscape+0x56c>
  426834:	afab0840 	sw	t3,2112(sp)
  426838:	06a00008 	bltz	s5,42685c <pickLandscape+0x54c>
  42683c:	00000000 	nop
  426840:	8f998584 	lw	t9,-31356(gp)
  426844:	02a02025 	move	a0,s5
  426848:	0320f809 	jalr	t9
  42684c:	00000000 	nop
  426850:	8fbc0030 	lw	gp,48(sp)
  426854:	10000009 	b	42687c <pickLandscape+0x56c>
  426858:	afa20844 	sw	v0,2116(sp)
  42685c:	06c00008 	bltz	s6,426880 <pickLandscape+0x570>
  426860:	8fac0844 	lw	t4,2116(sp)
  426864:	8f998584 	lw	t9,-31356(gp)
  426868:	02c02025 	move	a0,s6
  42686c:	0320f809 	jalr	t9
  426870:	00000000 	nop
  426874:	8fbc0030 	lw	gp,48(sp)
  426878:	afa2083c 	sw	v0,2108(sp)
  42687c:	8fac0844 	lw	t4,2116(sp)
  426880:	8fad0848 	lw	t5,2120(sp)
  426884:	00000000 	nop
  426888:	adac0000 	sw	t4,0(t5)
  42688c:	8faf084c 	lw	t7,2124(sp)
  426890:	8fae0840 	lw	t6,2112(sp)
  426894:	00000000 	nop
  426898:	adee0000 	sw	t6,0(t7)
  42689c:	8fa80850 	lw	t0,2128(sp)
  4268a0:	8fb8083c 	lw	t8,2108(sp)
  4268a4:	00000000 	nop
  4268a8:	ad180000 	sw	t8,0(t0)
  4268ac:	8fbf0034 	lw	ra,52(sp)
  4268b0:	8fb6002c 	lw	s6,44(sp)
  4268b4:	8fb50028 	lw	s5,40(sp)
  4268b8:	8fb40024 	lw	s4,36(sp)
  4268bc:	8fb30020 	lw	s3,32(sp)
  4268c0:	8fb2001c 	lw	s2,28(sp)
  4268c4:	8fb10018 	lw	s1,24(sp)
  4268c8:	8fb00014 	lw	s0,20(sp)
  4268cc:	03e00008 	jr	ra
  4268d0:	27bd0848 	addiu	sp,sp,2120
