# Function: FUN_004174d0
# Address: 0x004174d0 - 0x00417b7c
# Size: 0x6ac (1708 bytes)
# End detected by: jr ra
# GP = 0x1001db30
#


fsn.original:     file format elf32-tradbigmips


Disassembly of section .text:

004174d0 <initialize_db+0xc>:
  4174d0:	27bdfe90 	addiu	sp,sp,-368
  4174d4:	afa40170 	sw	a0,368(sp)
  4174d8:	8f84806c 	lw	a0,-32660(gp)
  4174dc:	8f9980e0 	lw	t9,-32544(gp)
  4174e0:	afbf001c 	sw	ra,28(sp)
  4174e4:	afbc0018 	sw	gp,24(sp)
  4174e8:	afb00014 	sw	s0,20(sp)
  4174ec:	a3a00047 	sb	zero,71(sp)
  4174f0:	0320f809 	jalr	t9
  4174f4:	248466ac 	addiu	a0,a0,26284
  4174f8:	8fbc0018 	lw	gp,24(sp)
  4174fc:	00000000 	nop
  417500:	8f908a24 	lw	s0,-30172(gp)
  417504:	00000000 	nop
  417508:	8e040120 	lw	a0,288(s0)
  41750c:	00000000 	nop
  417510:	1080004a 	beqz	a0,41763c <initialize_db+0x178>
  417514:	00000000 	nop
  417518:	908e0000 	lbu	t6,0(a0)
  41751c:	2401002f 	li	at,47
  417520:	15c10008 	bne	t6,at,417544 <initialize_db+0x80>
  417524:	00000000 	nop
  417528:	8f9982b0 	lw	t9,-32080(gp)
  41752c:	00000000 	nop
  417530:	0320f809 	jalr	t9
  417534:	00000000 	nop
  417538:	8fbc0018 	lw	gp,24(sp)
  41753c:	10000038 	b	417620 <initialize_db+0x15c>
  417540:	ae02011c 	sw	v0,284(s0)
  417544:	8f9983f4 	lw	t9,-31756(gp)
  417548:	00002025 	move	a0,zero
  41754c:	0320f809 	jalr	t9
  417550:	24050400 	li	a1,1024
  417554:	8fbc0018 	lw	gp,24(sp)
  417558:	afa20034 	sw	v0,52(sp)
  41755c:	8f9983e0 	lw	t9,-31776(gp)
  417560:	00402025 	move	a0,v0
  417564:	0320f809 	jalr	t9
  417568:	00000000 	nop
  41756c:	8fbc0018 	lw	gp,24(sp)
  417570:	8e040120 	lw	a0,288(s0)
  417574:	8f9983e0 	lw	t9,-31776(gp)
  417578:	afa20028 	sw	v0,40(sp)
  41757c:	0320f809 	jalr	t9
  417580:	00000000 	nop
  417584:	8fbc0018 	lw	gp,24(sp)
  417588:	8fa30028 	lw	v1,40(sp)
  41758c:	8f9983b8 	lw	t9,-31816(gp)
  417590:	00432021 	addu	a0,v0,v1
  417594:	0320f809 	jalr	t9
  417598:	24840002 	addiu	a0,a0,2
  41759c:	8fbc0018 	lw	gp,24(sp)
  4175a0:	ae02011c 	sw	v0,284(s0)
  4175a4:	8f998134 	lw	t9,-32460(gp)
  4175a8:	8fa50034 	lw	a1,52(sp)
  4175ac:	0320f809 	jalr	t9
  4175b0:	00402025 	move	a0,v0
  4175b4:	8fbc0018 	lw	gp,24(sp)
  4175b8:	8e04011c 	lw	a0,284(s0)
  4175bc:	8f85805c 	lw	a1,-32676(gp)
  4175c0:	8f99831c 	lw	t9,-31972(gp)
  4175c4:	24a5adc8 	addiu	a1,a1,-21048
  4175c8:	0320f809 	jalr	t9
  4175cc:	00000000 	nop
  4175d0:	8fbc0018 	lw	gp,24(sp)
  4175d4:	8e04011c 	lw	a0,284(s0)
  4175d8:	8f99831c 	lw	t9,-31972(gp)
  4175dc:	8e050120 	lw	a1,288(s0)
  4175e0:	0320f809 	jalr	t9
  4175e4:	00000000 	nop
  4175e8:	8fbc0018 	lw	gp,24(sp)
  4175ec:	8e04011c 	lw	a0,284(s0)
  4175f0:	8f9982b0 	lw	t9,-32080(gp)
  4175f4:	00000000 	nop
  4175f8:	0320f809 	jalr	t9
  4175fc:	00000000 	nop
  417600:	8fbc0018 	lw	gp,24(sp)
  417604:	ae020120 	sw	v0,288(s0)
  417608:	8f9980c0 	lw	t9,-32576(gp)
  41760c:	8fa40034 	lw	a0,52(sp)
  417610:	0320f809 	jalr	t9
  417614:	00000000 	nop
  417618:	8fbc0018 	lw	gp,24(sp)
  41761c:	00000000 	nop
  417620:	8f9982c0 	lw	t9,-32064(gp)
  417624:	8e04011c 	lw	a0,284(s0)
  417628:	0320f809 	jalr	t9
  41762c:	2405002f 	li	a1,47
  417630:	8fbc0018 	lw	gp,24(sp)
  417634:	10000057 	b	417794 <initialize_db+0x2d0>
  417638:	a0400000 	sb	zero,0(v0)
  41763c:	8e04011c 	lw	a0,284(s0)
  417640:	00000000 	nop
  417644:	14800017 	bnez	a0,4176a4 <initialize_db+0x1e0>
  417648:	00000000 	nop
  41764c:	920f0008 	lbu	t7,8(s0)
  417650:	00000000 	nop
  417654:	11e00006 	beqz	t7,417670 <initialize_db+0x1ac>
  417658:	00000000 	nop
  41765c:	8f98805c 	lw	t8,-32676(gp)
  417660:	00000000 	nop
  417664:	2704adcc 	addiu	a0,t8,-21044
  417668:	1000000e 	b	4176a4 <initialize_db+0x1e0>
  41766c:	ae04011c 	sw	a0,284(s0)
  417670:	8f84805c 	lw	a0,-32676(gp)
  417674:	8f9981a8 	lw	t9,-32344(gp)
  417678:	2484add0 	addiu	a0,a0,-21040
  41767c:	0320f809 	jalr	t9
  417680:	00000000 	nop
  417684:	8fbc0018 	lw	gp,24(sp)
  417688:	ae02011c 	sw	v0,284(s0)
  41768c:	14400005 	bnez	v0,4176a4 <initialize_db+0x1e0>
  417690:	00402025 	move	a0,v0
  417694:	8f99805c 	lw	t9,-32676(gp)
  417698:	00000000 	nop
  41769c:	2724add8 	addiu	a0,t9,-21032
  4176a0:	ae04011c 	sw	a0,284(s0)
  4176a4:	8f9983e0 	lw	t9,-31776(gp)
  4176a8:	00000000 	nop
  4176ac:	0320f809 	jalr	t9
  4176b0:	00000000 	nop
  4176b4:	8fbc0018 	lw	gp,24(sp)
  4176b8:	8fa40170 	lw	a0,368(sp)
  4176bc:	8f9983e0 	lw	t9,-31776(gp)
  4176c0:	afa20028 	sw	v0,40(sp)
  4176c4:	0320f809 	jalr	t9
  4176c8:	00000000 	nop
  4176cc:	8fbc0018 	lw	gp,24(sp)
  4176d0:	8fa30028 	lw	v1,40(sp)
  4176d4:	8f9983b8 	lw	t9,-31816(gp)
  4176d8:	00432021 	addu	a0,v0,v1
  4176dc:	0320f809 	jalr	t9
  4176e0:	24840007 	addiu	a0,a0,7
  4176e4:	8fbc0018 	lw	gp,24(sp)
  4176e8:	ae020120 	sw	v0,288(s0)
  4176ec:	8f998134 	lw	t9,-32460(gp)
  4176f0:	8e05011c 	lw	a1,284(s0)
  4176f4:	0320f809 	jalr	t9
  4176f8:	00402025 	move	a0,v0
  4176fc:	8fbc0018 	lw	gp,24(sp)
  417700:	8e040120 	lw	a0,288(s0)
  417704:	8f85805c 	lw	a1,-32676(gp)
  417708:	8f99831c 	lw	t9,-31972(gp)
  41770c:	24a5addc 	addiu	a1,a1,-21028
  417710:	0320f809 	jalr	t9
  417714:	00000000 	nop
  417718:	8fbc0018 	lw	gp,24(sp)
  41771c:	8e040120 	lw	a0,288(s0)
  417720:	8f9983e0 	lw	t9,-31776(gp)
  417724:	00000000 	nop
  417728:	0320f809 	jalr	t9
  41772c:	00000000 	nop
  417730:	8fbc0018 	lw	gp,24(sp)
  417734:	8e040120 	lw	a0,288(s0)
  417738:	8f99831c 	lw	t9,-31972(gp)
  41773c:	8fa50170 	lw	a1,368(sp)
  417740:	00444021 	addu	t0,v0,a0
  417744:	0320f809 	jalr	t9
  417748:	afa80030 	sw	t0,48(sp)
  41774c:	8fbc0018 	lw	gp,24(sp)
  417750:	8fa40030 	lw	a0,48(sp)
  417754:	8f9980e8 	lw	t9,-32536(gp)
  417758:	2405002f 	li	a1,47
  41775c:	0320f809 	jalr	t9
  417760:	00000000 	nop
  417764:	8fbc0018 	lw	gp,24(sp)
  417768:	1040000a 	beqz	v0,417794 <initialize_db+0x2d0>
  41776c:	00401825 	move	v1,v0
  417770:	2409005f 	li	t1,95
  417774:	a0690000 	sb	t1,0(v1)
  417778:	8f9980e8 	lw	t9,-32536(gp)
  41777c:	8fa40030 	lw	a0,48(sp)
  417780:	0320f809 	jalr	t9
  417784:	2405002f 	li	a1,47
  417788:	8fbc0018 	lw	gp,24(sp)
  41778c:	1440fff8 	bnez	v0,417770 <initialize_db+0x2ac>
  417790:	00401825 	move	v1,v0
  417794:	8f9983e0 	lw	t9,-31776(gp)
  417798:	8e040120 	lw	a0,288(s0)
  41779c:	0320f809 	jalr	t9
  4177a0:	00000000 	nop
  4177a4:	8fbc0018 	lw	gp,24(sp)
  4177a8:	24440012 	addiu	a0,v0,18
  4177ac:	8f9983b8 	lw	t9,-31816(gp)
  4177b0:	00000000 	nop
  4177b4:	0320f809 	jalr	t9
  4177b8:	00000000 	nop
  4177bc:	8fbc0018 	lw	gp,24(sp)
  4177c0:	8e060120 	lw	a2,288(s0)
  4177c4:	8f85805c 	lw	a1,-32676(gp)
  4177c8:	8f9983e4 	lw	t9,-31772(gp)
  4177cc:	afa20040 	sw	v0,64(sp)
  4177d0:	00402025 	move	a0,v0
  4177d4:	0320f809 	jalr	t9
  4177d8:	24a5ade4 	addiu	a1,a1,-21020
  4177dc:	8fbc0018 	lw	gp,24(sp)
  4177e0:	8fa40040 	lw	a0,64(sp)
  4177e4:	8f85805c 	lw	a1,-32676(gp)
  4177e8:	8f998260 	lw	t9,-32160(gp)
  4177ec:	24a5adf8 	addiu	a1,a1,-21000
  4177f0:	0320f809 	jalr	t9
  4177f4:	00000000 	nop
  4177f8:	8fbc0018 	lw	gp,24(sp)
  4177fc:	00000000 	nop
  417800:	8f81806c 	lw	at,-32660(gp)
  417804:	8f84806c 	lw	a0,-32660(gp)
  417808:	ac226690 	sw	v0,26256(at)
  41780c:	8c846690 	lw	a0,26256(a0)
  417810:	00000000 	nop
  417814:	1080003b 	beqz	a0,417904 <initialize_db+0x440>
  417818:	93b80047 	lbu	t8,71(sp)
  41781c:	8f8a809c 	lw	t2,-32612(gp)
  417820:	00000000 	nop
  417824:	8d4a0000 	lw	t2,0(t2)
  417828:	00000000 	nop
  41782c:	11400008 	beqz	t2,417850 <initialize_db+0x38c>
  417830:	00000000 	nop
  417834:	8f9982c8 	lw	t9,-32056(gp)
  417838:	00000000 	nop
  41783c:	0320f809 	jalr	t9
  417840:	00000000 	nop
  417844:	8fbc0018 	lw	gp,24(sp)
  417848:	1000001a 	b	4178b4 <initialize_db+0x3f0>
  41784c:	00402025 	move	a0,v0
  417850:	8c8b0000 	lw	t3,0(a0)
  417854:	00000000 	nop
  417858:	256cffff 	addiu	t4,t3,-1
  41785c:	ac8c0000 	sw	t4,0(a0)
  417860:	8f84806c 	lw	a0,-32660(gp)
  417864:	00000000 	nop
  417868:	8c846690 	lw	a0,26256(a0)
  41786c:	00000000 	nop
  417870:	8c8d0000 	lw	t5,0(a0)
  417874:	00000000 	nop
  417878:	05a10008 	bgez	t5,41789c <initialize_db+0x3d8>
  41787c:	00000000 	nop
  417880:	8f9982d8 	lw	t9,-32040(gp)
  417884:	00000000 	nop
  417888:	0320f809 	jalr	t9
  41788c:	00000000 	nop
  417890:	8fbc0018 	lw	gp,24(sp)
  417894:	10000006 	b	4178b0 <initialize_db+0x3ec>
  417898:	00401825 	move	v1,v0
  41789c:	8c820004 	lw	v0,4(a0)
  4178a0:	00000000 	nop
  4178a4:	90430000 	lbu	v1,0(v0)
  4178a8:	244e0001 	addiu	t6,v0,1
  4178ac:	ac8e0004 	sw	t6,4(a0)
  4178b0:	00602025 	move	a0,v1
  4178b4:	2401ffff 	li	at,-1
  4178b8:	14810009 	bne	a0,at,4178e0 <initialize_db+0x41c>
  4178bc:	00000000 	nop
  4178c0:	8f84806c 	lw	a0,-32660(gp)
  4178c4:	8f998274 	lw	t9,-32140(gp)
  4178c8:	8c846690 	lw	a0,26256(a0)
  4178cc:	0320f809 	jalr	t9
  4178d0:	00000000 	nop
  4178d4:	8fbc0018 	lw	gp,24(sp)
  4178d8:	1000000a 	b	417904 <initialize_db+0x440>
  4178dc:	93b80047 	lbu	t8,71(sp)
  4178e0:	8f85806c 	lw	a1,-32660(gp)
  4178e4:	8f9982a4 	lw	t9,-32092(gp)
  4178e8:	8ca56690 	lw	a1,26256(a1)
  4178ec:	0320f809 	jalr	t9
  4178f0:	00000000 	nop
  4178f4:	240f0001 	li	t7,1
  4178f8:	8fbc0018 	lw	gp,24(sp)
  4178fc:	a3af0047 	sb	t7,71(sp)
  417900:	93b80047 	lbu	t8,71(sp)
  417904:	00000000 	nop
  417908:	17000026 	bnez	t8,4179a4 <initialize_db+0x4e0>
  41790c:	00000000 	nop
  417910:	8f85805c 	lw	a1,-32676(gp)
  417914:	8f998264 	lw	t9,-32156(gp)
  417918:	8e040120 	lw	a0,288(s0)
  41791c:	0320f809 	jalr	t9
  417920:	24a5adfc 	addiu	a1,a1,-20996
  417924:	8fbc0018 	lw	gp,24(sp)
  417928:	00000000 	nop
  41792c:	8f81806c 	lw	at,-32660(gp)
  417930:	8f99806c 	lw	t9,-32660(gp)
  417934:	ac226690 	sw	v0,26256(at)
  417938:	8f396690 	lw	t9,26256(t9)
  41793c:	00000000 	nop
  417940:	17200018 	bnez	t9,4179a4 <initialize_db+0x4e0>
  417944:	00000000 	nop
  417948:	8f998798 	lw	t9,-30824(gp)
  41794c:	00000000 	nop
  417950:	0320f809 	jalr	t9
  417954:	00000000 	nop
  417958:	8fbc0018 	lw	gp,24(sp)
  41795c:	8fa40170 	lw	a0,368(sp)
  417960:	8f998018 	lw	t9,-32744(gp)
  417964:	00000000 	nop
  417968:	273958d4 	addiu	t9,t9,22740
  41796c:	0320f809 	jalr	t9
  417970:	00000000 	nop
  417974:	8fbc0018 	lw	gp,24(sp)
  417978:	8fa40040 	lw	a0,64(sp)
  41797c:	8f90892c 	lw	s0,-30420(gp)
  417980:	00000000 	nop
  417984:	ae020000 	sw	v0,0(s0)
  417988:	8f9980c0 	lw	t9,-32576(gp)
  41798c:	00000000 	nop
  417990:	0320f809 	jalr	t9
  417994:	00000000 	nop
  417998:	8fbc0018 	lw	gp,24(sp)
  41799c:	10000074 	b	417b70 <initialize_db+0x6ac>
  4179a0:	8fbf001c 	lw	ra,28(sp)
  4179a4:	8f998794 	lw	t9,-30828(gp)
  4179a8:	00000000 	nop
  4179ac:	0320f809 	jalr	t9
  4179b0:	00000000 	nop
  4179b4:	8fbc0018 	lw	gp,24(sp)
  4179b8:	00002825 	move	a1,zero
  4179bc:	8f84805c 	lw	a0,-32676(gp)
  4179c0:	8f998568 	lw	t9,-31384(gp)
  4179c4:	2484ae00 	addiu	a0,a0,-20992
  4179c8:	0320f809 	jalr	t9
  4179cc:	00000000 	nop
  4179d0:	8fbc0018 	lw	gp,24(sp)
  4179d4:	afa2016c 	sw	v0,364(sp)
  4179d8:	8f9985c4 	lw	t9,-31292(gp)
  4179dc:	00000000 	nop
  4179e0:	0320f809 	jalr	t9
  4179e4:	00000000 	nop
  4179e8:	8fbc0018 	lw	gp,24(sp)
  4179ec:	00000000 	nop
  4179f0:	8f90892c 	lw	s0,-30420(gp)
  4179f4:	00000000 	nop
  4179f8:	8e020000 	lw	v0,0(s0)
  4179fc:	00000000 	nop
  417a00:	90490074 	lbu	t1,116(v0)
  417a04:	00000000 	nop
  417a08:	352a0002 	ori	t2,t1,0x2
  417a0c:	a04a0074 	sb	t2,116(v0)
  417a10:	93ab0047 	lbu	t3,71(sp)
  417a14:	00000000 	nop
  417a18:	11600009 	beqz	t3,417a40 <initialize_db+0x57c>
  417a1c:	00000000 	nop
  417a20:	8f84806c 	lw	a0,-32660(gp)
  417a24:	8f998274 	lw	t9,-32140(gp)
  417a28:	8c846690 	lw	a0,26256(a0)
  417a2c:	0320f809 	jalr	t9
  417a30:	00000000 	nop
  417a34:	8fbc0018 	lw	gp,24(sp)
  417a38:	10000008 	b	417a5c <initialize_db+0x598>
  417a3c:	00000000 	nop
  417a40:	8f84806c 	lw	a0,-32660(gp)
  417a44:	8f998270 	lw	t9,-32144(gp)
  417a48:	8c846690 	lw	a0,26256(a0)
  417a4c:	0320f809 	jalr	t9
  417a50:	00000000 	nop
  417a54:	8fbc0018 	lw	gp,24(sp)
  417a58:	00000000 	nop
  417a5c:	8f998564 	lw	t9,-31388(gp)
  417a60:	8fa4016c 	lw	a0,364(sp)
  417a64:	0320f809 	jalr	t9
  417a68:	00000000 	nop
  417a6c:	8fbc0018 	lw	gp,24(sp)
  417a70:	8e0c0000 	lw	t4,0(s0)
  417a74:	8f99812c 	lw	t9,-32468(gp)
  417a78:	8d840000 	lw	a0,0(t4)
  417a7c:	0320f809 	jalr	t9
  417a80:	27a50048 	addiu	a1,sp,72
  417a84:	8fbc0018 	lw	gp,24(sp)
  417a88:	04410011 	bgez	v0,417ad0 <initialize_db+0x60c>
  417a8c:	00000000 	nop
  417a90:	8e0d0000 	lw	t5,0(s0)
  417a94:	8f848098 	lw	a0,-32616(gp)
  417a98:	8f85805c 	lw	a1,-32676(gp)
  417a9c:	8f9983f8 	lw	t9,-31752(gp)
  417aa0:	8da60000 	lw	a2,0(t5)
  417aa4:	24840020 	addiu	a0,a0,32
  417aa8:	0320f809 	jalr	t9
  417aac:	24a5ae20 	addiu	a1,a1,-20960
  417ab0:	8fbc0018 	lw	gp,24(sp)
  417ab4:	24040001 	li	a0,1
  417ab8:	8f9983a0 	lw	t9,-31840(gp)
  417abc:	00000000 	nop
  417ac0:	0320f809 	jalr	t9
  417ac4:	00000000 	nop
  417ac8:	8fbc0018 	lw	gp,24(sp)
  417acc:	00000000 	nop
  417ad0:	8f998134 	lw	t9,-32460(gp)
  417ad4:	8f848a4c 	lw	a0,-30132(gp)
  417ad8:	0320f809 	jalr	t9
  417adc:	27a5006c 	addiu	a1,sp,108
  417ae0:	8fae007c 	lw	t6,124(sp)
  417ae4:	8fbc0018 	lw	gp,24(sp)
  417ae8:	3c018000 	lui	at,0x8000
  417aec:	01c17824 	and	t7,t6,at
  417af0:	8f818a50 	lw	at,-30128(gp)
  417af4:	8f998120 	lw	t9,-32480(gp)
  417af8:	ac2f0000 	sw	t7,0(at)
  417afc:	8e180000 	lw	t8,0(s0)
  417b00:	27a500e4 	addiu	a1,sp,228
  417b04:	8f040000 	lw	a0,0(t8)
  417b08:	0320f809 	jalr	t9
  417b0c:	00000000 	nop
  417b10:	8fbc0018 	lw	gp,24(sp)
  417b14:	04410012 	bgez	v0,417b60 <initialize_db+0x69c>
  417b18:	8fa800e4 	lw	t0,228(sp)
  417b1c:	8e190000 	lw	t9,0(s0)
  417b20:	8f848098 	lw	a0,-32616(gp)
  417b24:	8f260000 	lw	a2,0(t9)
  417b28:	8f9983f8 	lw	t9,-31752(gp)
  417b2c:	8f85805c 	lw	a1,-32676(gp)
  417b30:	24840020 	addiu	a0,a0,32
  417b34:	0320f809 	jalr	t9
  417b38:	24a5ae40 	addiu	a1,a1,-20928
  417b3c:	8fbc0018 	lw	gp,24(sp)
  417b40:	24040001 	li	a0,1
  417b44:	8f9983a0 	lw	t9,-31840(gp)
  417b48:	00000000 	nop
  417b4c:	0320f809 	jalr	t9
  417b50:	00000000 	nop
  417b54:	8fbc0018 	lw	gp,24(sp)
  417b58:	00000000 	nop
  417b5c:	8fa800e4 	lw	t0,228(sp)
  417b60:	8f81806c 	lw	at,-32660(gp)
  417b64:	00000000 	nop
  417b68:	ac2866b8 	sw	t0,26296(at)
  417b6c:	8fbf001c 	lw	ra,28(sp)
  417b70:	8fb00014 	lw	s0,20(sp)
  417b74:	03e00008 	jr	ra
  417b78:	27bd0170 	addiu	sp,sp,368
