# Function: CreateSelectionMenus
# Address: 0x0041b034 - 0x0041bd00
# Size: 0xccc (3276 bytes)
# End detected by: jr ra
# GP = 0x1001db30
#


fsn.original:     file format elf32-tradbigmips


Disassembly of section .text:

0041b034 <CreateSelectionMenus>:
  41b034:	3c1c0fc0 	lui	gp,0xfc0
  41b038:	279c2afc 	addiu	gp,gp,11004
  41b03c:	0399e021 	addu	gp,gp,t9
  41b040:	27bdff58 	addiu	sp,sp,-168
  41b044:	afa400a8 	sw	a0,168(sp)
  41b048:	8f848a04 	lw	a0,-30204(gp)
  41b04c:	8f99880c 	lw	t9,-30708(gp)
  41b050:	afb0001c 	sw	s0,28(sp)
  41b054:	27b00040 	addiu	s0,sp,64
  41b058:	afbf0024 	sw	ra,36(sp)
  41b05c:	afa500ac 	sw	a1,172(sp)
  41b060:	8c840000 	lw	a0,0(a0)
  41b064:	afbc0020 	sw	gp,32(sp)
  41b068:	afa0003c 	sw	zero,60(sp)
  41b06c:	00002825 	move	a1,zero
  41b070:	02003025 	move	a2,s0
  41b074:	0320f809 	jalr	t9
  41b078:	27a7003c 	addiu	a3,sp,60
  41b07c:	8fbc0020 	lw	gp,32(sp)
  41b080:	8fa400a8 	lw	a0,168(sp)
  41b084:	8f85805c 	lw	a1,-32676(gp)
  41b088:	8f998434 	lw	t9,-31692(gp)
  41b08c:	8fa7003c 	lw	a3,60(sp)
  41b090:	02003025 	move	a2,s0
  41b094:	0320f809 	jalr	t9
  41b098:	24a5b058 	addiu	a1,a1,-20392
  41b09c:	8fbc0020 	lw	gp,32(sp)
  41b0a0:	afa200a4 	sw	v0,164(sp)
  41b0a4:	8f8580a0 	lw	a1,-32608(gp)
  41b0a8:	8f8686b0 	lw	a2,-31056(gp)
  41b0ac:	8f9983ac 	lw	t9,-31828(gp)
  41b0b0:	00402025 	move	a0,v0
  41b0b4:	00003825 	move	a3,zero
  41b0b8:	24a51e96 	addiu	a1,a1,7830
  41b0bc:	0320f809 	jalr	t9
  41b0c0:	afa60034 	sw	a2,52(sp)
  41b0c4:	8fbc0020 	lw	gp,32(sp)
  41b0c8:	8fa400a4 	lw	a0,164(sp)
  41b0cc:	8f8580a0 	lw	a1,-32608(gp)
  41b0d0:	8f8686ac 	lw	a2,-31060(gp)
  41b0d4:	8f9983ac 	lw	t9,-31828(gp)
  41b0d8:	00003825 	move	a3,zero
  41b0dc:	24a528d0 	addiu	a1,a1,10448
  41b0e0:	0320f809 	jalr	t9
  41b0e4:	afa60030 	sw	a2,48(sp)
  41b0e8:	8fbc0020 	lw	gp,32(sp)
  41b0ec:	8fa400a4 	lw	a0,164(sp)
  41b0f0:	8f9987a4 	lw	t9,-30812(gp)
  41b0f4:	8f8589b0 	lw	a1,-30288(gp)
  41b0f8:	0320f809 	jalr	t9
  41b0fc:	00000000 	nop
  41b100:	8fbc0020 	lw	gp,32(sp)
  41b104:	8fa400a4 	lw	a0,164(sp)
  41b108:	8f85805c 	lw	a1,-32676(gp)
  41b10c:	8f99843c 	lw	t9,-31684(gp)
  41b110:	afa0003c 	sw	zero,60(sp)
  41b114:	02003025 	move	a2,s0
  41b118:	00003825 	move	a3,zero
  41b11c:	0320f809 	jalr	t9
  41b120:	24a5b060 	addiu	a1,a1,-20384
  41b124:	8fbc0020 	lw	gp,32(sp)
  41b128:	00402025 	move	a0,v0
  41b12c:	8f83806c 	lw	v1,-32660(gp)
  41b130:	8f8580a0 	lw	a1,-32608(gp)
  41b134:	24636b54 	addiu	v1,v1,27476
  41b138:	ac620000 	sw	v0,0(v1)
  41b13c:	8f9983ac 	lw	t9,-31828(gp)
  41b140:	8f86801c 	lw	a2,-32740(gp)
  41b144:	00003825 	move	a3,zero
  41b148:	24a5293d 	addiu	a1,a1,10557
  41b14c:	0320f809 	jalr	t9
  41b150:	24c6dea4 	addiu	a2,a2,-8540
  41b154:	8fbc0020 	lw	gp,32(sp)
  41b158:	00000000 	nop
  41b15c:	8f84806c 	lw	a0,-32660(gp)
  41b160:	8f998388 	lw	t9,-31864(gp)
  41b164:	8c846b54 	lw	a0,27476(a0)
  41b168:	0320f809 	jalr	t9
  41b16c:	00000000 	nop
  41b170:	8fbc0020 	lw	gp,32(sp)
  41b174:	8fa400a4 	lw	a0,164(sp)
  41b178:	8f85805c 	lw	a1,-32676(gp)
  41b17c:	8f9984e0 	lw	t9,-31520(gp)
  41b180:	afa0003c 	sw	zero,60(sp)
  41b184:	02003025 	move	a2,s0
  41b188:	00003825 	move	a3,zero
  41b18c:	0320f809 	jalr	t9
  41b190:	24a5b078 	addiu	a1,a1,-20360
  41b194:	8fbc0020 	lw	gp,32(sp)
  41b198:	afa20098 	sw	v0,152(sp)
  41b19c:	8f86801c 	lw	a2,-32740(gp)
  41b1a0:	8f8580a0 	lw	a1,-32608(gp)
  41b1a4:	8f9983ac 	lw	t9,-31828(gp)
  41b1a8:	24c6dff4 	addiu	a2,a2,-8204
  41b1ac:	afa6002c 	sw	a2,44(sp)
  41b1b0:	00402025 	move	a0,v0
  41b1b4:	24070001 	li	a3,1
  41b1b8:	0320f809 	jalr	t9
  41b1bc:	24a5124b 	addiu	a1,a1,4683
  41b1c0:	8fbc0020 	lw	gp,32(sp)
  41b1c4:	8fa40098 	lw	a0,152(sp)
  41b1c8:	8f998388 	lw	t9,-31864(gp)
  41b1cc:	00000000 	nop
  41b1d0:	0320f809 	jalr	t9
  41b1d4:	00000000 	nop
  41b1d8:	8fbc0020 	lw	gp,32(sp)
  41b1dc:	8fa400a4 	lw	a0,164(sp)
  41b1e0:	8f85805c 	lw	a1,-32676(gp)
  41b1e4:	8f9984e0 	lw	t9,-31520(gp)
  41b1e8:	afa0003c 	sw	zero,60(sp)
  41b1ec:	02003025 	move	a2,s0
  41b1f0:	00003825 	move	a3,zero
  41b1f4:	0320f809 	jalr	t9
  41b1f8:	24a5b088 	addiu	a1,a1,-20344
  41b1fc:	8fbc0020 	lw	gp,32(sp)
  41b200:	8fa6002c 	lw	a2,44(sp)
  41b204:	8f8580a0 	lw	a1,-32608(gp)
  41b208:	8f9983ac 	lw	t9,-31828(gp)
  41b20c:	afa20098 	sw	v0,152(sp)
  41b210:	00402025 	move	a0,v0
  41b214:	00003825 	move	a3,zero
  41b218:	0320f809 	jalr	t9
  41b21c:	24a5124b 	addiu	a1,a1,4683
  41b220:	8fbc0020 	lw	gp,32(sp)
  41b224:	8fa40098 	lw	a0,152(sp)
  41b228:	8f998388 	lw	t9,-31864(gp)
  41b22c:	00000000 	nop
  41b230:	0320f809 	jalr	t9
  41b234:	00000000 	nop
  41b238:	8fbc0020 	lw	gp,32(sp)
  41b23c:	8fa400a4 	lw	a0,164(sp)
  41b240:	8f85805c 	lw	a1,-32676(gp)
  41b244:	8f9984e0 	lw	t9,-31520(gp)
  41b248:	afa0003c 	sw	zero,60(sp)
  41b24c:	02003025 	move	a2,s0
  41b250:	00003825 	move	a3,zero
  41b254:	0320f809 	jalr	t9
  41b258:	24a5b09c 	addiu	a1,a1,-20324
  41b25c:	8fbc0020 	lw	gp,32(sp)
  41b260:	afa20098 	sw	v0,152(sp)
  41b264:	8f8580a0 	lw	a1,-32608(gp)
  41b268:	8f86801c 	lw	a2,-32740(gp)
  41b26c:	8f9983ac 	lw	t9,-31828(gp)
  41b270:	00402025 	move	a0,v0
  41b274:	00003825 	move	a3,zero
  41b278:	24a5124b 	addiu	a1,a1,4683
  41b27c:	0320f809 	jalr	t9
  41b280:	24c6e0a8 	addiu	a2,a2,-8024
  41b284:	8fbc0020 	lw	gp,32(sp)
  41b288:	8fa40098 	lw	a0,152(sp)
  41b28c:	8f998388 	lw	t9,-31864(gp)
  41b290:	00000000 	nop
  41b294:	0320f809 	jalr	t9
  41b298:	00000000 	nop
  41b29c:	8fbc0020 	lw	gp,32(sp)
  41b2a0:	8fa400a4 	lw	a0,164(sp)
  41b2a4:	8f85805c 	lw	a1,-32676(gp)
  41b2a8:	8f99843c 	lw	t9,-31684(gp)
  41b2ac:	afa0003c 	sw	zero,60(sp)
  41b2b0:	02003025 	move	a2,s0
  41b2b4:	00003825 	move	a3,zero
  41b2b8:	0320f809 	jalr	t9
  41b2bc:	24a5b0b0 	addiu	a1,a1,-20304
  41b2c0:	8fbc0020 	lw	gp,32(sp)
  41b2c4:	00402025 	move	a0,v0
  41b2c8:	8f83806c 	lw	v1,-32660(gp)
  41b2cc:	8f8580a0 	lw	a1,-32608(gp)
  41b2d0:	24636b58 	addiu	v1,v1,27480
  41b2d4:	ac620000 	sw	v0,0(v1)
  41b2d8:	8f9983ac 	lw	t9,-31828(gp)
  41b2dc:	8f86801c 	lw	a2,-32740(gp)
  41b2e0:	00003825 	move	a3,zero
  41b2e4:	24a5293d 	addiu	a1,a1,10557
  41b2e8:	0320f809 	jalr	t9
  41b2ec:	24c6ef30 	addiu	a2,a2,-4304
  41b2f0:	8fbc0020 	lw	gp,32(sp)
  41b2f4:	00000000 	nop
  41b2f8:	8f84806c 	lw	a0,-32660(gp)
  41b2fc:	8f998388 	lw	t9,-31864(gp)
  41b300:	8c846b58 	lw	a0,27480(a0)
  41b304:	0320f809 	jalr	t9
  41b308:	00000000 	nop
  41b30c:	8fbc0020 	lw	gp,32(sp)
  41b310:	24190002 	li	t9,2
  41b314:	8f8e80a0 	lw	t6,-32608(gp)
  41b318:	8f9880a4 	lw	t8,-32604(gp)
  41b31c:	afb9003c 	sw	t9,60(sp)
  41b320:	8faf00a4 	lw	t7,164(sp)
  41b324:	8f998408 	lw	t9,-31736(gp)
  41b328:	8f85805c 	lw	a1,-32676(gp)
  41b32c:	8fa400a8 	lw	a0,168(sp)
  41b330:	25ce26c9 	addiu	t6,t6,9929
  41b334:	271802c7 	addiu	t8,t8,711
  41b338:	afae0040 	sw	t6,64(sp)
  41b33c:	afb80048 	sw	t8,72(sp)
  41b340:	afa0004c 	sw	zero,76(sp)
  41b344:	02003025 	move	a2,s0
  41b348:	24070002 	li	a3,2
  41b34c:	afaf0044 	sw	t7,68(sp)
  41b350:	0320f809 	jalr	t9
  41b354:	24a5b0c4 	addiu	a1,a1,-20284
  41b358:	8fbc0020 	lw	gp,32(sp)
  41b35c:	00402025 	move	a0,v0
  41b360:	8f83806c 	lw	v1,-32660(gp)
  41b364:	00000000 	nop
  41b368:	24636b98 	addiu	v1,v1,27544
  41b36c:	ac620000 	sw	v0,0(v1)
  41b370:	8f998388 	lw	t9,-31864(gp)
  41b374:	00000000 	nop
  41b378:	0320f809 	jalr	t9
  41b37c:	00000000 	nop
  41b380:	8fbc0020 	lw	gp,32(sp)
  41b384:	00000000 	nop
  41b388:	8f84806c 	lw	a0,-32660(gp)
  41b38c:	8f9987a4 	lw	t9,-30812(gp)
  41b390:	8f8589b0 	lw	a1,-30288(gp)
  41b394:	8c846b98 	lw	a0,27544(a0)
  41b398:	0320f809 	jalr	t9
  41b39c:	00000000 	nop
  41b3a0:	8fbc0020 	lw	gp,32(sp)
  41b3a4:	8fa400ac 	lw	a0,172(sp)
  41b3a8:	8f99838c 	lw	t9,-31860(gp)
  41b3ac:	8f878650 	lw	a3,-31152(gp)
  41b3b0:	24050004 	li	a1,4
  41b3b4:	00003025 	move	a2,zero
  41b3b8:	0320f809 	jalr	t9
  41b3bc:	afa00010 	sw	zero,16(sp)
  41b3c0:	8fbc0020 	lw	gp,32(sp)
  41b3c4:	afa0003c 	sw	zero,60(sp)
  41b3c8:	8f848a04 	lw	a0,-30204(gp)
  41b3cc:	8f99880c 	lw	t9,-30708(gp)
  41b3d0:	8c840000 	lw	a0,0(a0)
  41b3d4:	00002825 	move	a1,zero
  41b3d8:	02003025 	move	a2,s0
  41b3dc:	0320f809 	jalr	t9
  41b3e0:	27a7003c 	addiu	a3,sp,60
  41b3e4:	8fbc0020 	lw	gp,32(sp)
  41b3e8:	00002825 	move	a1,zero
  41b3ec:	8f84806c 	lw	a0,-32660(gp)
  41b3f0:	8f998318 	lw	t9,-31976(gp)
  41b3f4:	8c846b98 	lw	a0,27544(a0)
  41b3f8:	0320f809 	jalr	t9
  41b3fc:	00000000 	nop
  41b400:	8fbc0020 	lw	gp,32(sp)
  41b404:	8fa400ac 	lw	a0,172(sp)
  41b408:	8f85805c 	lw	a1,-32676(gp)
  41b40c:	8f998224 	lw	t9,-32220(gp)
  41b410:	8fa7003c 	lw	a3,60(sp)
  41b414:	02003025 	move	a2,s0
  41b418:	0320f809 	jalr	t9
  41b41c:	24a5b0d4 	addiu	a1,a1,-20268
  41b420:	8fbc0020 	lw	gp,32(sp)
  41b424:	8fa60030 	lw	a2,48(sp)
  41b428:	8f83806c 	lw	v1,-32660(gp)
  41b42c:	8f8580a0 	lw	a1,-32608(gp)
  41b430:	24636b94 	addiu	v1,v1,27540
  41b434:	ac620000 	sw	v0,0(v1)
  41b438:	8f9983ac 	lw	t9,-31828(gp)
  41b43c:	00402025 	move	a0,v0
  41b440:	00003825 	move	a3,zero
  41b444:	0320f809 	jalr	t9
  41b448:	24a528d0 	addiu	a1,a1,10448
  41b44c:	8fbc0020 	lw	gp,32(sp)
  41b450:	00000000 	nop
  41b454:	8f84806c 	lw	a0,-32660(gp)
  41b458:	8f9987a4 	lw	t9,-30812(gp)
  41b45c:	8f8589b4 	lw	a1,-30284(gp)
  41b460:	8c846b94 	lw	a0,27540(a0)
  41b464:	0320f809 	jalr	t9
  41b468:	00000000 	nop
  41b46c:	8fbc0020 	lw	gp,32(sp)
  41b470:	afa0003c 	sw	zero,60(sp)
  41b474:	8f848a04 	lw	a0,-30204(gp)
  41b478:	8f99880c 	lw	t9,-30708(gp)
  41b47c:	8c840000 	lw	a0,0(a0)
  41b480:	00002825 	move	a1,zero
  41b484:	02003025 	move	a2,s0
  41b488:	0320f809 	jalr	t9
  41b48c:	27a7003c 	addiu	a3,sp,60
  41b490:	8fbc0020 	lw	gp,32(sp)
  41b494:	8fa400a8 	lw	a0,168(sp)
  41b498:	8f85805c 	lw	a1,-32676(gp)
  41b49c:	8f998434 	lw	t9,-31692(gp)
  41b4a0:	8fa7003c 	lw	a3,60(sp)
  41b4a4:	02003025 	move	a2,s0
  41b4a8:	0320f809 	jalr	t9
  41b4ac:	24a5b0e0 	addiu	a1,a1,-20256
  41b4b0:	8fbc0020 	lw	gp,32(sp)
  41b4b4:	8fa60034 	lw	a2,52(sp)
  41b4b8:	8f8580a0 	lw	a1,-32608(gp)
  41b4bc:	8f9983ac 	lw	t9,-31828(gp)
  41b4c0:	afa200a0 	sw	v0,160(sp)
  41b4c4:	00402025 	move	a0,v0
  41b4c8:	00003825 	move	a3,zero
  41b4cc:	0320f809 	jalr	t9
  41b4d0:	24a51e96 	addiu	a1,a1,7830
  41b4d4:	8fbc0020 	lw	gp,32(sp)
  41b4d8:	8fa400a0 	lw	a0,160(sp)
  41b4dc:	8f8580a0 	lw	a1,-32608(gp)
  41b4e0:	8f9983ac 	lw	t9,-31828(gp)
  41b4e4:	8fa60030 	lw	a2,48(sp)
  41b4e8:	00003825 	move	a3,zero
  41b4ec:	0320f809 	jalr	t9
  41b4f0:	24a528d0 	addiu	a1,a1,10448
  41b4f4:	8fbc0020 	lw	gp,32(sp)
  41b4f8:	8fa400a0 	lw	a0,160(sp)
  41b4fc:	8f9987a4 	lw	t9,-30812(gp)
  41b500:	8f8589b4 	lw	a1,-30284(gp)
  41b504:	0320f809 	jalr	t9
  41b508:	00000000 	nop
  41b50c:	8fbc0020 	lw	gp,32(sp)
  41b510:	afa0003c 	sw	zero,60(sp)
  41b514:	8f84806c 	lw	a0,-32660(gp)
  41b518:	8f85805c 	lw	a1,-32676(gp)
  41b51c:	8f9983d8 	lw	t9,-31784(gp)
  41b520:	8c846b94 	lw	a0,27540(a0)
  41b524:	02003025 	move	a2,s0
  41b528:	00003825 	move	a3,zero
  41b52c:	0320f809 	jalr	t9
  41b530:	24a5b0ec 	addiu	a1,a1,-20244
  41b534:	8fbc0020 	lw	gp,32(sp)
  41b538:	00402025 	move	a0,v0
  41b53c:	8f998388 	lw	t9,-31864(gp)
  41b540:	00000000 	nop
  41b544:	0320f809 	jalr	t9
  41b548:	00000000 	nop
  41b54c:	8fbc0020 	lw	gp,32(sp)
  41b550:	afa0003c 	sw	zero,60(sp)
  41b554:	8f84806c 	lw	a0,-32660(gp)
  41b558:	8f85805c 	lw	a1,-32676(gp)
  41b55c:	8f9984fc 	lw	t9,-31492(gp)
  41b560:	8c846b94 	lw	a0,27540(a0)
  41b564:	02003025 	move	a2,s0
  41b568:	00003825 	move	a3,zero
  41b56c:	0320f809 	jalr	t9
  41b570:	24a5b0f8 	addiu	a1,a1,-20232
  41b574:	8fbc0020 	lw	gp,32(sp)
  41b578:	00402025 	move	a0,v0
  41b57c:	8f998388 	lw	t9,-31864(gp)
  41b580:	00000000 	nop
  41b584:	0320f809 	jalr	t9
  41b588:	00000000 	nop
  41b58c:	8fbc0020 	lw	gp,32(sp)
  41b590:	afa0003c 	sw	zero,60(sp)
  41b594:	8f84806c 	lw	a0,-32660(gp)
  41b598:	8f85805c 	lw	a1,-32676(gp)
  41b59c:	8f9984e0 	lw	t9,-31520(gp)
  41b5a0:	8c846b94 	lw	a0,27540(a0)
  41b5a4:	02003025 	move	a2,s0
  41b5a8:	00003825 	move	a3,zero
  41b5ac:	0320f809 	jalr	t9
  41b5b0:	24a5b104 	addiu	a1,a1,-20220
  41b5b4:	8fbc0020 	lw	gp,32(sp)
  41b5b8:	00402025 	move	a0,v0
  41b5bc:	8f83806c 	lw	v1,-32660(gp)
  41b5c0:	8f86801c 	lw	a2,-32740(gp)
  41b5c4:	24636b5c 	addiu	v1,v1,27484
  41b5c8:	ac620000 	sw	v0,0(v1)
  41b5cc:	8f9983ac 	lw	t9,-31828(gp)
  41b5d0:	8f8580a0 	lw	a1,-32608(gp)
  41b5d4:	24c6e8a8 	addiu	a2,a2,-5976
  41b5d8:	afa60034 	sw	a2,52(sp)
  41b5dc:	00003825 	move	a3,zero
  41b5e0:	0320f809 	jalr	t9
  41b5e4:	24a5124b 	addiu	a1,a1,4683
  41b5e8:	8fbc0020 	lw	gp,32(sp)
  41b5ec:	00000000 	nop
  41b5f0:	8f84806c 	lw	a0,-32660(gp)
  41b5f4:	8f998388 	lw	t9,-31864(gp)
  41b5f8:	8c846b5c 	lw	a0,27484(a0)
  41b5fc:	0320f809 	jalr	t9
  41b600:	00000000 	nop
  41b604:	8fbc0020 	lw	gp,32(sp)
  41b608:	02003025 	move	a2,s0
  41b60c:	8f838068 	lw	v1,-32664(gp)
  41b610:	8f88806c 	lw	t0,-32660(gp)
  41b614:	24636e20 	addiu	v1,v1,28192
  41b618:	8c620000 	lw	v0,0(v1)
  41b61c:	8f8a806c 	lw	t2,-32660(gp)
  41b620:	8d086b5c 	lw	t0,27484(t0)
  41b624:	00024880 	sll	t1,v0,0x2
  41b628:	254a6ba0 	addiu	t2,t2,27552
  41b62c:	012a5821 	addu	t3,t1,t2
  41b630:	ad680000 	sw	t0,0(t3)
  41b634:	244c0001 	addiu	t4,v0,1
  41b638:	ac6c0000 	sw	t4,0(v1)
  41b63c:	8f9984e0 	lw	t9,-31520(gp)
  41b640:	8f85805c 	lw	a1,-32676(gp)
  41b644:	8fa7003c 	lw	a3,60(sp)
  41b648:	8fa400a0 	lw	a0,160(sp)
  41b64c:	0320f809 	jalr	t9
  41b650:	24a5b114 	addiu	a1,a1,-20204
  41b654:	8fbc0020 	lw	gp,32(sp)
  41b658:	8fa60034 	lw	a2,52(sp)
  41b65c:	8f83806c 	lw	v1,-32660(gp)
  41b660:	8f8580a0 	lw	a1,-32608(gp)
  41b664:	24636b60 	addiu	v1,v1,27488
  41b668:	ac620000 	sw	v0,0(v1)
  41b66c:	8f9983ac 	lw	t9,-31828(gp)
  41b670:	00402025 	move	a0,v0
  41b674:	00003825 	move	a3,zero
  41b678:	0320f809 	jalr	t9
  41b67c:	24a5124b 	addiu	a1,a1,4683
  41b680:	8fbc0020 	lw	gp,32(sp)
  41b684:	00000000 	nop
  41b688:	8f84806c 	lw	a0,-32660(gp)
  41b68c:	8f998388 	lw	t9,-31864(gp)
  41b690:	8c846b60 	lw	a0,27488(a0)
  41b694:	0320f809 	jalr	t9
  41b698:	00000000 	nop
  41b69c:	8fbc0020 	lw	gp,32(sp)
  41b6a0:	02003025 	move	a2,s0
  41b6a4:	8f838068 	lw	v1,-32664(gp)
  41b6a8:	8f8d806c 	lw	t5,-32660(gp)
  41b6ac:	24636e20 	addiu	v1,v1,28192
  41b6b0:	8c620000 	lw	v0,0(v1)
  41b6b4:	8f8f806c 	lw	t7,-32660(gp)
  41b6b8:	8dad6b60 	lw	t5,27488(t5)
  41b6bc:	00027080 	sll	t6,v0,0x2
  41b6c0:	25ef6ba0 	addiu	t7,t7,27552
  41b6c4:	01cfc021 	addu	t8,t6,t7
  41b6c8:	24590001 	addiu	t9,v0,1
  41b6cc:	af0d0000 	sw	t5,0(t8)
  41b6d0:	8f84806c 	lw	a0,-32660(gp)
  41b6d4:	ac790000 	sw	t9,0(v1)
  41b6d8:	8f9984e0 	lw	t9,-31520(gp)
  41b6dc:	8f85805c 	lw	a1,-32676(gp)
  41b6e0:	8c846b94 	lw	a0,27540(a0)
  41b6e4:	afa0003c 	sw	zero,60(sp)
  41b6e8:	00003825 	move	a3,zero
  41b6ec:	0320f809 	jalr	t9
  41b6f0:	24a5b124 	addiu	a1,a1,-20188
  41b6f4:	8fbc0020 	lw	gp,32(sp)
  41b6f8:	00402025 	move	a0,v0
  41b6fc:	8f83806c 	lw	v1,-32660(gp)
  41b700:	8f86801c 	lw	a2,-32740(gp)
  41b704:	24636b64 	addiu	v1,v1,27492
  41b708:	ac620000 	sw	v0,0(v1)
  41b70c:	8f9983ac 	lw	t9,-31828(gp)
  41b710:	8f8580a0 	lw	a1,-32608(gp)
  41b714:	24c6e918 	addiu	a2,a2,-5864
  41b718:	afa60034 	sw	a2,52(sp)
  41b71c:	00003825 	move	a3,zero
  41b720:	0320f809 	jalr	t9
  41b724:	24a5124b 	addiu	a1,a1,4683
  41b728:	8fbc0020 	lw	gp,32(sp)
  41b72c:	00000000 	nop
  41b730:	8f84806c 	lw	a0,-32660(gp)
  41b734:	8f998388 	lw	t9,-31864(gp)
  41b738:	8c846b64 	lw	a0,27492(a0)
  41b73c:	0320f809 	jalr	t9
  41b740:	00000000 	nop
  41b744:	8fbc0020 	lw	gp,32(sp)
  41b748:	02003025 	move	a2,s0
  41b74c:	8f838068 	lw	v1,-32664(gp)
  41b750:	8f89806c 	lw	t1,-32660(gp)
  41b754:	24636e20 	addiu	v1,v1,28192
  41b758:	8c620000 	lw	v0,0(v1)
  41b75c:	8f88806c 	lw	t0,-32660(gp)
  41b760:	8d296b64 	lw	t1,27492(t1)
  41b764:	00025080 	sll	t2,v0,0x2
  41b768:	25086ba0 	addiu	t0,t0,27552
  41b76c:	01485821 	addu	t3,t2,t0
  41b770:	ad690000 	sw	t1,0(t3)
  41b774:	244c0001 	addiu	t4,v0,1
  41b778:	ac6c0000 	sw	t4,0(v1)
  41b77c:	8f9984e0 	lw	t9,-31520(gp)
  41b780:	8f85805c 	lw	a1,-32676(gp)
  41b784:	8fa7003c 	lw	a3,60(sp)
  41b788:	8fa400a0 	lw	a0,160(sp)
  41b78c:	0320f809 	jalr	t9
  41b790:	24a5b134 	addiu	a1,a1,-20172
  41b794:	8fbc0020 	lw	gp,32(sp)
  41b798:	8fa60034 	lw	a2,52(sp)
  41b79c:	8f83806c 	lw	v1,-32660(gp)
  41b7a0:	8f8580a0 	lw	a1,-32608(gp)
  41b7a4:	24636b68 	addiu	v1,v1,27496
  41b7a8:	ac620000 	sw	v0,0(v1)
  41b7ac:	8f9983ac 	lw	t9,-31828(gp)
  41b7b0:	00402025 	move	a0,v0
  41b7b4:	00003825 	move	a3,zero
  41b7b8:	0320f809 	jalr	t9
  41b7bc:	24a5124b 	addiu	a1,a1,4683
  41b7c0:	8fbc0020 	lw	gp,32(sp)
  41b7c4:	00000000 	nop
  41b7c8:	8f84806c 	lw	a0,-32660(gp)
  41b7cc:	8f998388 	lw	t9,-31864(gp)
  41b7d0:	8c846b68 	lw	a0,27496(a0)
  41b7d4:	0320f809 	jalr	t9
  41b7d8:	00000000 	nop
  41b7dc:	8fbc0020 	lw	gp,32(sp)
  41b7e0:	02003025 	move	a2,s0
  41b7e4:	8f838068 	lw	v1,-32664(gp)
  41b7e8:	8f8e806c 	lw	t6,-32660(gp)
  41b7ec:	24636e20 	addiu	v1,v1,28192
  41b7f0:	8c620000 	lw	v0,0(v1)
  41b7f4:	8f8d806c 	lw	t5,-32660(gp)
  41b7f8:	8dce6b68 	lw	t6,27496(t6)
  41b7fc:	00027880 	sll	t7,v0,0x2
  41b800:	25ad6ba0 	addiu	t5,t5,27552
  41b804:	01edc021 	addu	t8,t7,t5
  41b808:	24590001 	addiu	t9,v0,1
  41b80c:	af0e0000 	sw	t6,0(t8)
  41b810:	8f84806c 	lw	a0,-32660(gp)
  41b814:	ac790000 	sw	t9,0(v1)
  41b818:	8f99843c 	lw	t9,-31684(gp)
  41b81c:	8f85805c 	lw	a1,-32676(gp)
  41b820:	8c846b94 	lw	a0,27540(a0)
  41b824:	afa0003c 	sw	zero,60(sp)
  41b828:	00003825 	move	a3,zero
  41b82c:	0320f809 	jalr	t9
  41b830:	24a5b144 	addiu	a1,a1,-20156
  41b834:	8fbc0020 	lw	gp,32(sp)
  41b838:	00402025 	move	a0,v0
  41b83c:	8f83806c 	lw	v1,-32660(gp)
  41b840:	8f86801c 	lw	a2,-32740(gp)
  41b844:	24636b84 	addiu	v1,v1,27524
  41b848:	ac620000 	sw	v0,0(v1)
  41b84c:	8f9983ac 	lw	t9,-31828(gp)
  41b850:	8f8580a0 	lw	a1,-32608(gp)
  41b854:	24c6e988 	addiu	a2,a2,-5752
  41b858:	afa60034 	sw	a2,52(sp)
  41b85c:	00003825 	move	a3,zero
  41b860:	0320f809 	jalr	t9
  41b864:	24a5293d 	addiu	a1,a1,10557
  41b868:	8fbc0020 	lw	gp,32(sp)
  41b86c:	00000000 	nop
  41b870:	8f84806c 	lw	a0,-32660(gp)
  41b874:	8f998388 	lw	t9,-31864(gp)
  41b878:	8c846b84 	lw	a0,27524(a0)
  41b87c:	0320f809 	jalr	t9
  41b880:	00000000 	nop
  41b884:	8fbc0020 	lw	gp,32(sp)
  41b888:	02003025 	move	a2,s0
  41b88c:	8f828068 	lw	v0,-32664(gp)
  41b890:	8f8a806c 	lw	t2,-32660(gp)
  41b894:	8f89806c 	lw	t1,-32660(gp)
  41b898:	8c426e20 	lw	v0,28192(v0)
  41b89c:	8d4a6b84 	lw	t2,27524(t2)
  41b8a0:	25296ba0 	addiu	t1,t1,27552
  41b8a4:	00024080 	sll	t0,v0,0x2
  41b8a8:	01095821 	addu	t3,t0,t1
  41b8ac:	ad6a0000 	sw	t2,0(t3)
  41b8b0:	8f818068 	lw	at,-32664(gp)
  41b8b4:	8f99843c 	lw	t9,-31684(gp)
  41b8b8:	8f85805c 	lw	a1,-32676(gp)
  41b8bc:	8fa7003c 	lw	a3,60(sp)
  41b8c0:	8fa400a0 	lw	a0,160(sp)
  41b8c4:	244c0001 	addiu	t4,v0,1
  41b8c8:	ac2c6e20 	sw	t4,28192(at)
  41b8cc:	0320f809 	jalr	t9
  41b8d0:	24a5b154 	addiu	a1,a1,-20140
  41b8d4:	8fbc0020 	lw	gp,32(sp)
  41b8d8:	8fa60034 	lw	a2,52(sp)
  41b8dc:	8f83806c 	lw	v1,-32660(gp)
  41b8e0:	8f8580a0 	lw	a1,-32608(gp)
  41b8e4:	24636b88 	addiu	v1,v1,27528
  41b8e8:	ac620000 	sw	v0,0(v1)
  41b8ec:	8f9983ac 	lw	t9,-31828(gp)
  41b8f0:	00402025 	move	a0,v0
  41b8f4:	00003825 	move	a3,zero
  41b8f8:	0320f809 	jalr	t9
  41b8fc:	24a5293d 	addiu	a1,a1,10557
  41b900:	8fbc0020 	lw	gp,32(sp)
  41b904:	00000000 	nop
  41b908:	8f84806c 	lw	a0,-32660(gp)
  41b90c:	8f998388 	lw	t9,-31864(gp)
  41b910:	8c846b88 	lw	a0,27528(a0)
  41b914:	0320f809 	jalr	t9
  41b918:	00000000 	nop
  41b91c:	8fbc0020 	lw	gp,32(sp)
  41b920:	240b0002 	li	t3,2
  41b924:	8f828068 	lw	v0,-32664(gp)
  41b928:	8f8f806c 	lw	t7,-32660(gp)
  41b92c:	8f8e806c 	lw	t6,-32660(gp)
  41b930:	8c426e20 	lw	v0,28192(v0)
  41b934:	8def6b88 	lw	t7,27528(t7)
  41b938:	25ce6ba0 	addiu	t6,t6,27552
  41b93c:	00026880 	sll	t5,v0,0x2
  41b940:	01aec021 	addu	t8,t5,t6
  41b944:	af0f0000 	sw	t7,0(t8)
  41b948:	8f818068 	lw	at,-32664(gp)
  41b94c:	8f89806c 	lw	t1,-32660(gp)
  41b950:	24590001 	addiu	t9,v0,1
  41b954:	8f8880a0 	lw	t0,-32608(gp)
  41b958:	8f8a80a4 	lw	t2,-32604(gp)
  41b95c:	8f84806c 	lw	a0,-32660(gp)
  41b960:	ac396e20 	sw	t9,28192(at)
  41b964:	8f9984e0 	lw	t9,-31520(gp)
  41b968:	8f85805c 	lw	a1,-32676(gp)
  41b96c:	8d296b30 	lw	t1,27440(t1)
  41b970:	25081d4d 	addiu	t0,t0,7501
  41b974:	254a02c7 	addiu	t2,t2,711
  41b978:	8c846b94 	lw	a0,27540(a0)
  41b97c:	afa80040 	sw	t0,64(sp)
  41b980:	afaa0048 	sw	t2,72(sp)
  41b984:	afab003c 	sw	t3,60(sp)
  41b988:	afa0004c 	sw	zero,76(sp)
  41b98c:	02003025 	move	a2,s0
  41b990:	24070002 	li	a3,2
  41b994:	24a5b164 	addiu	a1,a1,-20124
  41b998:	0320f809 	jalr	t9
  41b99c:	afa90044 	sw	t1,68(sp)
  41b9a0:	8fbc0020 	lw	gp,32(sp)
  41b9a4:	00402025 	move	a0,v0
  41b9a8:	8f83806c 	lw	v1,-32660(gp)
  41b9ac:	8f86801c 	lw	a2,-32740(gp)
  41b9b0:	24636b6c 	addiu	v1,v1,27500
  41b9b4:	ac620000 	sw	v0,0(v1)
  41b9b8:	8f9983ac 	lw	t9,-31828(gp)
  41b9bc:	8f8580a0 	lw	a1,-32608(gp)
  41b9c0:	24c6f2b4 	addiu	a2,a2,-3404
  41b9c4:	afa60034 	sw	a2,52(sp)
  41b9c8:	24070001 	li	a3,1
  41b9cc:	0320f809 	jalr	t9
  41b9d0:	24a5124b 	addiu	a1,a1,4683
  41b9d4:	8fbc0020 	lw	gp,32(sp)
  41b9d8:	00000000 	nop
  41b9dc:	8f84806c 	lw	a0,-32660(gp)
  41b9e0:	8f998388 	lw	t9,-31864(gp)
  41b9e4:	8c846b6c 	lw	a0,27500(a0)
  41b9e8:	0320f809 	jalr	t9
  41b9ec:	00000000 	nop
  41b9f0:	8fbc0020 	lw	gp,32(sp)
  41b9f4:	8fa400a0 	lw	a0,160(sp)
  41b9f8:	8f85805c 	lw	a1,-32676(gp)
  41b9fc:	8f9984e0 	lw	t9,-31520(gp)
  41ba00:	8fa7003c 	lw	a3,60(sp)
  41ba04:	02003025 	move	a2,s0
  41ba08:	0320f809 	jalr	t9
  41ba0c:	24a5b174 	addiu	a1,a1,-20108
  41ba10:	8fbc0020 	lw	gp,32(sp)
  41ba14:	8fa60034 	lw	a2,52(sp)
  41ba18:	8f83806c 	lw	v1,-32660(gp)
  41ba1c:	8f8580a0 	lw	a1,-32608(gp)
  41ba20:	24636b70 	addiu	v1,v1,27504
  41ba24:	ac620000 	sw	v0,0(v1)
  41ba28:	8f9983ac 	lw	t9,-31828(gp)
  41ba2c:	00402025 	move	a0,v0
  41ba30:	24070001 	li	a3,1
  41ba34:	0320f809 	jalr	t9
  41ba38:	24a5124b 	addiu	a1,a1,4683
  41ba3c:	8fbc0020 	lw	gp,32(sp)
  41ba40:	00000000 	nop
  41ba44:	8f84806c 	lw	a0,-32660(gp)
  41ba48:	8f998388 	lw	t9,-31864(gp)
  41ba4c:	8c846b70 	lw	a0,27504(a0)
  41ba50:	0320f809 	jalr	t9
  41ba54:	00000000 	nop
  41ba58:	8fbc0020 	lw	gp,32(sp)
  41ba5c:	240f0002 	li	t7,2
  41ba60:	8f8d806c 	lw	t5,-32660(gp)
  41ba64:	8f8c80a0 	lw	t4,-32608(gp)
  41ba68:	8f8e80a4 	lw	t6,-32604(gp)
  41ba6c:	8f84806c 	lw	a0,-32660(gp)
  41ba70:	8f85805c 	lw	a1,-32676(gp)
  41ba74:	8f9984e0 	lw	t9,-31520(gp)
  41ba78:	8dad6b3c 	lw	t5,27452(t5)
  41ba7c:	258c1d4d 	addiu	t4,t4,7501
  41ba80:	25ce02c7 	addiu	t6,t6,711
  41ba84:	8c846b94 	lw	a0,27540(a0)
  41ba88:	afac0040 	sw	t4,64(sp)
  41ba8c:	afae0048 	sw	t6,72(sp)
  41ba90:	afaf003c 	sw	t7,60(sp)
  41ba94:	afa0004c 	sw	zero,76(sp)
  41ba98:	02003025 	move	a2,s0
  41ba9c:	24070002 	li	a3,2
  41baa0:	24a5b184 	addiu	a1,a1,-20092
  41baa4:	0320f809 	jalr	t9
  41baa8:	afad0044 	sw	t5,68(sp)
  41baac:	8fbc0020 	lw	gp,32(sp)
  41bab0:	8fa60034 	lw	a2,52(sp)
  41bab4:	8f83806c 	lw	v1,-32660(gp)
  41bab8:	8f8580a0 	lw	a1,-32608(gp)
  41babc:	24636b74 	addiu	v1,v1,27508
  41bac0:	ac620000 	sw	v0,0(v1)
  41bac4:	8f9983ac 	lw	t9,-31828(gp)
  41bac8:	00402025 	move	a0,v0
  41bacc:	24070002 	li	a3,2
  41bad0:	0320f809 	jalr	t9
  41bad4:	24a5124b 	addiu	a1,a1,4683
  41bad8:	8fbc0020 	lw	gp,32(sp)
  41badc:	00000000 	nop
  41bae0:	8f84806c 	lw	a0,-32660(gp)
  41bae4:	8f998388 	lw	t9,-31864(gp)
  41bae8:	8c846b74 	lw	a0,27508(a0)
  41baec:	0320f809 	jalr	t9
  41baf0:	00000000 	nop
  41baf4:	8fbc0020 	lw	gp,32(sp)
  41baf8:	8fa400a0 	lw	a0,160(sp)
  41bafc:	8f85805c 	lw	a1,-32676(gp)
  41bb00:	8f9984e0 	lw	t9,-31520(gp)
  41bb04:	8fa7003c 	lw	a3,60(sp)
  41bb08:	02003025 	move	a2,s0
  41bb0c:	0320f809 	jalr	t9
  41bb10:	24a5b194 	addiu	a1,a1,-20076
  41bb14:	8fbc0020 	lw	gp,32(sp)
  41bb18:	8fa60034 	lw	a2,52(sp)
  41bb1c:	8f83806c 	lw	v1,-32660(gp)
  41bb20:	8f8580a0 	lw	a1,-32608(gp)
  41bb24:	24636b78 	addiu	v1,v1,27512
  41bb28:	ac620000 	sw	v0,0(v1)
  41bb2c:	8f9983ac 	lw	t9,-31828(gp)
  41bb30:	00402025 	move	a0,v0
  41bb34:	24070002 	li	a3,2
  41bb38:	0320f809 	jalr	t9
  41bb3c:	24a5124b 	addiu	a1,a1,4683
  41bb40:	8fbc0020 	lw	gp,32(sp)
  41bb44:	00000000 	nop
  41bb48:	8f84806c 	lw	a0,-32660(gp)
  41bb4c:	8f998388 	lw	t9,-31864(gp)
  41bb50:	8c846b78 	lw	a0,27512(a0)
  41bb54:	0320f809 	jalr	t9
  41bb58:	00000000 	nop
  41bb5c:	8fbc0020 	lw	gp,32(sp)
  41bb60:	24090002 	li	t1,2
  41bb64:	8f99806c 	lw	t9,-32660(gp)
  41bb68:	8f9880a0 	lw	t8,-32608(gp)
  41bb6c:	8f396b48 	lw	t9,27464(t9)
  41bb70:	8f8880a4 	lw	t0,-32604(gp)
  41bb74:	8f84806c 	lw	a0,-32660(gp)
  41bb78:	afb90044 	sw	t9,68(sp)
  41bb7c:	8f9984e0 	lw	t9,-31520(gp)
  41bb80:	8f85805c 	lw	a1,-32676(gp)
  41bb84:	27181d4d 	addiu	t8,t8,7501
  41bb88:	250802c7 	addiu	t0,t0,711
  41bb8c:	8c846b94 	lw	a0,27540(a0)
  41bb90:	afb80040 	sw	t8,64(sp)
  41bb94:	afa80048 	sw	t0,72(sp)
  41bb98:	afa9003c 	sw	t1,60(sp)
  41bb9c:	afa0004c 	sw	zero,76(sp)
  41bba0:	02003025 	move	a2,s0
  41bba4:	24070002 	li	a3,2
  41bba8:	0320f809 	jalr	t9
  41bbac:	24a5b1a4 	addiu	a1,a1,-20060
  41bbb0:	8fbc0020 	lw	gp,32(sp)
  41bbb4:	8fa60034 	lw	a2,52(sp)
  41bbb8:	8f83806c 	lw	v1,-32660(gp)
  41bbbc:	8f8580a0 	lw	a1,-32608(gp)
  41bbc0:	24636b7c 	addiu	v1,v1,27516
  41bbc4:	ac620000 	sw	v0,0(v1)
  41bbc8:	8f9983ac 	lw	t9,-31828(gp)
  41bbcc:	00402025 	move	a0,v0
  41bbd0:	24070003 	li	a3,3
  41bbd4:	0320f809 	jalr	t9
  41bbd8:	24a5124b 	addiu	a1,a1,4683
  41bbdc:	8fbc0020 	lw	gp,32(sp)
  41bbe0:	00000000 	nop
  41bbe4:	8f84806c 	lw	a0,-32660(gp)
  41bbe8:	8f998388 	lw	t9,-31864(gp)
  41bbec:	8c846b7c 	lw	a0,27516(a0)
  41bbf0:	0320f809 	jalr	t9
  41bbf4:	00000000 	nop
  41bbf8:	8fbc0020 	lw	gp,32(sp)
  41bbfc:	8fa400a0 	lw	a0,160(sp)
  41bc00:	8f85805c 	lw	a1,-32676(gp)
  41bc04:	8f9984e0 	lw	t9,-31520(gp)
  41bc08:	8fa7003c 	lw	a3,60(sp)
  41bc0c:	02003025 	move	a2,s0
  41bc10:	0320f809 	jalr	t9
  41bc14:	24a5b1b4 	addiu	a1,a1,-20044
  41bc18:	8fbc0020 	lw	gp,32(sp)
  41bc1c:	8fa60034 	lw	a2,52(sp)
  41bc20:	8f83806c 	lw	v1,-32660(gp)
  41bc24:	8f8580a0 	lw	a1,-32608(gp)
  41bc28:	24636b80 	addiu	v1,v1,27520
  41bc2c:	ac620000 	sw	v0,0(v1)
  41bc30:	8f9983ac 	lw	t9,-31828(gp)
  41bc34:	00402025 	move	a0,v0
  41bc38:	24070003 	li	a3,3
  41bc3c:	0320f809 	jalr	t9
  41bc40:	24a5124b 	addiu	a1,a1,4683
  41bc44:	8fbc0020 	lw	gp,32(sp)
  41bc48:	00000000 	nop
  41bc4c:	8f84806c 	lw	a0,-32660(gp)
  41bc50:	8f998388 	lw	t9,-31864(gp)
  41bc54:	8c846b80 	lw	a0,27520(a0)
  41bc58:	0320f809 	jalr	t9
  41bc5c:	00000000 	nop
  41bc60:	8fbc0020 	lw	gp,32(sp)
  41bc64:	8fab00a0 	lw	t3,160(sp)
  41bc68:	8f8a80a0 	lw	t2,-32608(gp)
  41bc6c:	8f8c80a4 	lw	t4,-32604(gp)
  41bc70:	8f85805c 	lw	a1,-32676(gp)
  41bc74:	8f998408 	lw	t9,-31736(gp)
  41bc78:	240d0002 	li	t5,2
  41bc7c:	8fa400a8 	lw	a0,168(sp)
  41bc80:	254a26c9 	addiu	t2,t2,9929
  41bc84:	258c02c7 	addiu	t4,t4,711
  41bc88:	afaa0040 	sw	t2,64(sp)
  41bc8c:	afac0048 	sw	t4,72(sp)
  41bc90:	afad003c 	sw	t5,60(sp)
  41bc94:	afa0004c 	sw	zero,76(sp)
  41bc98:	02003025 	move	a2,s0
  41bc9c:	24070002 	li	a3,2
  41bca0:	afab0044 	sw	t3,68(sp)
  41bca4:	0320f809 	jalr	t9
  41bca8:	24a5b1c4 	addiu	a1,a1,-20028
  41bcac:	8fbc0020 	lw	gp,32(sp)
  41bcb0:	00402025 	move	a0,v0
  41bcb4:	8f90806c 	lw	s0,-32660(gp)
  41bcb8:	00000000 	nop
  41bcbc:	26106b9c 	addiu	s0,s0,27548
  41bcc0:	ae020000 	sw	v0,0(s0)
  41bcc4:	8f998388 	lw	t9,-31864(gp)
  41bcc8:	00000000 	nop
  41bccc:	0320f809 	jalr	t9
  41bcd0:	00000000 	nop
  41bcd4:	8fbc0020 	lw	gp,32(sp)
  41bcd8:	8e040000 	lw	a0,0(s0)
  41bcdc:	8f9987a4 	lw	t9,-30812(gp)
  41bce0:	8f8589b4 	lw	a1,-30284(gp)
  41bce4:	0320f809 	jalr	t9
  41bce8:	00000000 	nop
  41bcec:	8fbf0024 	lw	ra,36(sp)
  41bcf0:	8fbc0020 	lw	gp,32(sp)
  41bcf4:	8fb0001c 	lw	s0,28(sp)
  41bcf8:	03e00008 	jr	ra
  41bcfc:	27bd00a8 	addiu	sp,sp,168
