# Function: FUN_00430448
# Address: 0x00430448 - 0x004307bc
# Size: 0x374 (884 bytes)
# End detected by: jr ra
# GP = 0x1001db30
#


fsn.original:     file format elf32-tradbigmips


Disassembly of section .text:

00430448 <usystem+0x6b0>:
  430448:	3c1c0fbf 	lui	gp,0xfbf
  43044c:	279cd6e8 	addiu	gp,gp,-10520
  430450:	0399e021 	addu	gp,gp,t9
  430454:	27bdff90 	addiu	sp,sp,-112
  430458:	8f998020 	lw	t9,-32736(gp)
  43045c:	afbf001c 	sw	ra,28(sp)
  430460:	27390358 	addiu	t9,t9,856
  430464:	afbc0018 	sw	gp,24(sp)
  430468:	afb00014 	sw	s0,20(sp)
  43046c:	afa40070 	sw	a0,112(sp)
  430470:	afa50074 	sw	a1,116(sp)
  430474:	0320f809 	jalr	t9
  430478:	afa60078 	sw	a2,120(sp)
  43047c:	8fbc0018 	lw	gp,24(sp)
  430480:	00000000 	nop
  430484:	8f90806c 	lw	s0,-32660(gp)
  430488:	8f81806c 	lw	at,-32660(gp)
  43048c:	26106f00 	addiu	s0,s0,28416
  430490:	ac206edc 	sw	zero,28380(at)
  430494:	8f84806c 	lw	a0,-32660(gp)
  430498:	ae000000 	sw	zero,0(s0)
  43049c:	8f998204 	lw	t9,-32252(gp)
  4304a0:	8c846ee4 	lw	a0,28388(a0)
  4304a4:	0320f809 	jalr	t9
  4304a8:	00000000 	nop
  4304ac:	8fbc0018 	lw	gp,24(sp)
  4304b0:	10400009 	beqz	v0,4304d8 <usystem+0x740>
  4304b4:	ae020008 	sw	v0,8(s0)
  4304b8:	904e0000 	lbu	t6,0(v0)
  4304bc:	00000000 	nop
  4304c0:	11c00005 	beqz	t6,4304d8 <usystem+0x740>
  4304c4:	00000000 	nop
  4304c8:	8e0f0000 	lw	t7,0(s0)
  4304cc:	00000000 	nop
  4304d0:	35f80001 	ori	t8,t7,0x1
  4304d4:	ae180000 	sw	t8,0(s0)
  4304d8:	8f84806c 	lw	a0,-32660(gp)
  4304dc:	8f998204 	lw	t9,-32252(gp)
  4304e0:	8c846ee8 	lw	a0,28392(a0)
  4304e4:	0320f809 	jalr	t9
  4304e8:	00000000 	nop
  4304ec:	8fbc0018 	lw	gp,24(sp)
  4304f0:	10400014 	beqz	v0,430544 <usystem+0x7ac>
  4304f4:	00402825 	move	a1,v0
  4304f8:	8f998444 	lw	t9,-31676(gp)
  4304fc:	90440000 	lbu	a0,0(v0)
  430500:	0320f809 	jalr	t9
  430504:	afa20028 	sw	v0,40(sp)
  430508:	8fbc0018 	lw	gp,24(sp)
  43050c:	8fa50028 	lw	a1,40(sp)
  430510:	1040000c 	beqz	v0,430544 <usystem+0x7ac>
  430514:	00000000 	nop
  430518:	8e190000 	lw	t9,0(s0)
  43051c:	00a02025 	move	a0,a1
  430520:	37280002 	ori	t0,t9,0x2
  430524:	ae080000 	sw	t0,0(s0)
  430528:	8f998430 	lw	t9,-31696(gp)
  43052c:	afa50028 	sw	a1,40(sp)
  430530:	0320f809 	jalr	t9
  430534:	00000000 	nop
  430538:	8fbc0018 	lw	gp,24(sp)
  43053c:	8fa50028 	lw	a1,40(sp)
  430540:	ae02000c 	sw	v0,12(s0)
  430544:	10a00007 	beqz	a1,430564 <usystem+0x7cc>
  430548:	00000000 	nop
  43054c:	8f998174 	lw	t9,-32396(gp)
  430550:	00a02025 	move	a0,a1
  430554:	0320f809 	jalr	t9
  430558:	00000000 	nop
  43055c:	8fbc0018 	lw	gp,24(sp)
  430560:	00000000 	nop
  430564:	8f84806c 	lw	a0,-32660(gp)
  430568:	8f998204 	lw	t9,-32252(gp)
  43056c:	8c846eec 	lw	a0,28396(a0)
  430570:	0320f809 	jalr	t9
  430574:	00000000 	nop
  430578:	8fbc0018 	lw	gp,24(sp)
  43057c:	10400014 	beqz	v0,4305d0 <usystem+0x838>
  430580:	00402825 	move	a1,v0
  430584:	8f998444 	lw	t9,-31676(gp)
  430588:	90440000 	lbu	a0,0(v0)
  43058c:	0320f809 	jalr	t9
  430590:	afa20028 	sw	v0,40(sp)
  430594:	8fbc0018 	lw	gp,24(sp)
  430598:	8fa50028 	lw	a1,40(sp)
  43059c:	1040000c 	beqz	v0,4305d0 <usystem+0x838>
  4305a0:	00000000 	nop
  4305a4:	8e090000 	lw	t1,0(s0)
  4305a8:	00a02025 	move	a0,a1
  4305ac:	352a0004 	ori	t2,t1,0x4
  4305b0:	ae0a0000 	sw	t2,0(s0)
  4305b4:	8f998430 	lw	t9,-31696(gp)
  4305b8:	afa50028 	sw	a1,40(sp)
  4305bc:	0320f809 	jalr	t9
  4305c0:	00000000 	nop
  4305c4:	8fbc0018 	lw	gp,24(sp)
  4305c8:	8fa50028 	lw	a1,40(sp)
  4305cc:	ae020010 	sw	v0,16(s0)
  4305d0:	10a00007 	beqz	a1,4305f0 <usystem+0x858>
  4305d4:	00000000 	nop
  4305d8:	8f998174 	lw	t9,-32396(gp)
  4305dc:	00a02025 	move	a0,a1
  4305e0:	0320f809 	jalr	t9
  4305e4:	00000000 	nop
  4305e8:	8fbc0018 	lw	gp,24(sp)
  4305ec:	00000000 	nop
  4305f0:	8e0b0000 	lw	t3,0(s0)
  4305f4:	00000000 	nop
  4305f8:	11600009 	beqz	t3,430620 <usystem+0x888>
  4305fc:	00000000 	nop
  430600:	8f84892c 	lw	a0,-30420(gp)
  430604:	8f998020 	lw	t9,-32736(gp)
  430608:	8c840000 	lw	a0,0(a0)
  43060c:	2739ffd8 	addiu	t9,t9,-40
  430610:	0320f809 	jalr	t9
  430614:	00000000 	nop
  430618:	8fbc0018 	lw	gp,24(sp)
  43061c:	00000000 	nop
  430620:	8e040008 	lw	a0,8(s0)
  430624:	00000000 	nop
  430628:	10800007 	beqz	a0,430648 <usystem+0x8b0>
  43062c:	00000000 	nop
  430630:	8f998174 	lw	t9,-32396(gp)
  430634:	00000000 	nop
  430638:	0320f809 	jalr	t9
  43063c:	00000000 	nop
  430640:	8fbc0018 	lw	gp,24(sp)
  430644:	00000000 	nop
  430648:	8f86806c 	lw	a2,-32660(gp)
  43064c:	27b0002c 	addiu	s0,sp,44
  430650:	8cc66edc 	lw	a2,28380(a2)
  430654:	24010001 	li	at,1
  430658:	10c00005 	beqz	a2,430670 <usystem+0x8d8>
  43065c:	00000000 	nop
  430660:	10c10012 	beq	a2,at,4306ac <usystem+0x914>
  430664:	27b0002c 	addiu	s0,sp,44
  430668:	1000001f 	b	4306e8 <usystem+0x950>
  43066c:	27b0002c 	addiu	s0,sp,44
  430670:	8f85805c 	lw	a1,-32676(gp)
  430674:	8f9983e4 	lw	t9,-31772(gp)
  430678:	02002025 	move	a0,s0
  43067c:	0320f809 	jalr	t9
  430680:	24a53ce0 	addiu	a1,a1,15584
  430684:	8fbc0018 	lw	gp,24(sp)
  430688:	00002825 	move	a1,zero
  43068c:	8f84806c 	lw	a0,-32660(gp)
  430690:	8f998318 	lw	t9,-31976(gp)
  430694:	8c846ef8 	lw	a0,28408(a0)
  430698:	0320f809 	jalr	t9
  43069c:	00000000 	nop
  4306a0:	8fbc0018 	lw	gp,24(sp)
  4306a4:	1000001e 	b	430720 <usystem+0x988>
  4306a8:	00000000 	nop
  4306ac:	8f85805c 	lw	a1,-32676(gp)
  4306b0:	8f9983e4 	lw	t9,-31772(gp)
  4306b4:	02002025 	move	a0,s0
  4306b8:	0320f809 	jalr	t9
  4306bc:	24a53cf4 	addiu	a1,a1,15604
  4306c0:	8fbc0018 	lw	gp,24(sp)
  4306c4:	24050001 	li	a1,1
  4306c8:	8f84806c 	lw	a0,-32660(gp)
  4306cc:	8f998318 	lw	t9,-31976(gp)
  4306d0:	8c846ef8 	lw	a0,28408(a0)
  4306d4:	0320f809 	jalr	t9
  4306d8:	00000000 	nop
  4306dc:	8fbc0018 	lw	gp,24(sp)
  4306e0:	1000000f 	b	430720 <usystem+0x988>
  4306e4:	00000000 	nop
  4306e8:	8f85805c 	lw	a1,-32676(gp)
  4306ec:	8f9983e4 	lw	t9,-31772(gp)
  4306f0:	02002025 	move	a0,s0
  4306f4:	0320f809 	jalr	t9
  4306f8:	24a53d04 	addiu	a1,a1,15620
  4306fc:	8fbc0018 	lw	gp,24(sp)
  430700:	24050001 	li	a1,1
  430704:	8f84806c 	lw	a0,-32660(gp)
  430708:	8f998318 	lw	t9,-31976(gp)
  43070c:	8c846ef8 	lw	a0,28408(a0)
  430710:	0320f809 	jalr	t9
  430714:	00000000 	nop
  430718:	8fbc0018 	lw	gp,24(sp)
  43071c:	00000000 	nop
  430720:	8f9983dc 	lw	t9,-31780(gp)
  430724:	8f8580a0 	lw	a1,-32608(gp)
  430728:	0320f809 	jalr	t9
  43072c:	02002025 	move	a0,s0
  430730:	8fbc0018 	lw	gp,24(sp)
  430734:	00408025 	move	s0,v0
  430738:	8f8c80a0 	lw	t4,-32608(gp)
  43073c:	8f84806c 	lw	a0,-32660(gp)
  430740:	8f998340 	lw	t9,-31936(gp)
  430744:	258c1d4d 	addiu	t4,t4,7501
  430748:	8c846ee0 	lw	a0,28384(a0)
  43074c:	afac0064 	sw	t4,100(sp)
  430750:	afa20068 	sw	v0,104(sp)
  430754:	27a50064 	addiu	a1,sp,100
  430758:	0320f809 	jalr	t9
  43075c:	24060001 	li	a2,1
  430760:	8fbc0018 	lw	gp,24(sp)
  430764:	02002025 	move	a0,s0
  430768:	8f998178 	lw	t9,-32392(gp)
  43076c:	00000000 	nop
  430770:	0320f809 	jalr	t9
  430774:	00000000 	nop
  430778:	8fbc0018 	lw	gp,24(sp)
  43077c:	00000000 	nop
  430780:	8f998534 	lw	t9,-31436(gp)
  430784:	00000000 	nop
  430788:	0320f809 	jalr	t9
  43078c:	00000000 	nop
  430790:	8fbc0018 	lw	gp,24(sp)
  430794:	00000000 	nop
  430798:	8f998780 	lw	t9,-30848(gp)
  43079c:	00000000 	nop
  4307a0:	0320f809 	jalr	t9
  4307a4:	00000000 	nop
  4307a8:	8fbf001c 	lw	ra,28(sp)
  4307ac:	8fbc0018 	lw	gp,24(sp)
  4307b0:	8fb00014 	lw	s0,20(sp)
  4307b4:	03e00008 	jr	ra
  4307b8:	27bd0070 	addiu	sp,sp,112
