# Disassembly of FUN_00419418
# Address: 0x00419418
# Size: 0x800
# GP = 0x1001db30
#
# GP offsets resolved to symbol names where known.
# See docs/DECOMPILATION_PROCEDURE.md for analysis workflow.
#


fsn.original:     file format elf32-tradbigmips


Disassembly of section .text:

00419418 <draw_warp_directory>:
  419418:	3c1c0fc0 	lui	gp,0xfc0
  41941c:	279c4718 	addiu	gp,gp,18200
  419420:	0399e021 	addu	gp,gp,t9
  419424:	27bdff30 	addiu	sp,sp,-208
  419428:	afa500d4 	sw	a1,212(sp)
  41942c:	93ae00d7 	lbu	t6,215(sp)
  419430:	afb40064 	sw	s4,100(sp)
  419434:	0080a025 	move	s4,a0
  419438:	afbf0074 	sw	ra,116(sp)
  41943c:	afbc0070 	sw	gp,112(sp)
  419440:	afb6006c 	sw	s6,108(sp)
  419444:	afb50068 	sw	s5,104(sp)
  419448:	afb30060 	sw	s3,96(sp)
  41944c:	afb2005c 	sw	s2,92(sp)
  419450:	afb10058 	sw	s1,88(sp)
  419454:	afb00054 	sw	s0,84(sp)
  419458:	e7b70048 	swc1	$f23,72(sp)
  41945c:	e7b6004c 	swc1	$f22,76(sp)
  419460:	e7b50040 	swc1	$f21,64(sp)
  419464:	15c001de 	bnez	t6,419be0 <draw_warp_directory+0x7c8>
  419468:	e7b40044 	swc1	$f20,68(sp)
  41946c:	8f96897c 	lw	s6,-30340(gp)  # curcontext
  419470:	8f938a24 	lw	s3,-30172(gp)  # fsn_resources
  419474:	8ecf0000 	lw	t7,0(s6)
  419478:	c6640110 	lwc1	$f4,272(s3)
  41947c:	c5e80034 	lwc1	$f8,52(t7)
  419480:	460021a1 	cvt.d.s	$f6,$f4
  419484:	460042a1 	cvt.d.s	$f10,$f8
  419488:	462a3482 	mul.d	$f18,$f6,$f10
  41948c:	92780004 	lbu	t8,4(s3)
  419490:	00000000 	nop
  419494:	13000166 	beqz	t8,419a30 <draw_warp_directory+0x618>
  419498:	462095a0 	cvt.s.d	$f22,$f18
  41949c:	8f998338 	lw	t9,-31944(gp)
  4194a0:	24040001 	li	a0,1
  4194a4:	0320f809 	jalr	t9
  4194a8:	00000000 	nop
  4194ac:	8fbc0070 	lw	gp,112(sp)
  4194b0:	00000000 	nop
  4194b4:	8f99823c 	lw	t9,-32196(gp)
  4194b8:	00000000 	nop
  4194bc:	0320f809 	jalr	t9
  4194c0:	00000000 	nop
  4194c4:	8fbc0070 	lw	gp,112(sp)
  4194c8:	8e640150 	lw	a0,336(s3)
  4194cc:	8f998464 	lw	t9,-31644(gp)
  4194d0:	00000000 	nop
  4194d4:	0320f809 	jalr	t9
  4194d8:	00000000 	nop
  4194dc:	8ec20000 	lw	v0,0(s6)
  4194e0:	4600b521 	cvt.d.s	$f20,$f22
  4194e4:	c4440000 	lwc1	$f4,0(v0)
  4194e8:	8fbc0070 	lw	gp,112(sp)
  4194ec:	46002221 	cvt.d.s	$f8,$f4
  4194f0:	46344181 	sub.d	$f6,$f8,$f20
  4194f4:	c6680114 	lwc1	$f8,276(s3)
  4194f8:	462032a0 	cvt.s.d	$f10,$f6
  4194fc:	3c01bf00 	lui	at,0xbf00
  419500:	e7aa00a8 	swc1	$f10,168(sp)
  419504:	c4520004 	lwc1	$f18,4(v0)
  419508:	460041a1 	cvt.d.s	$f6,$f8
  41950c:	46009121 	cvt.d.s	$f4,$f18
  419510:	46262280 	add.d	$f10,$f4,$f6
  419514:	44814000 	mtc1	at,$f8
  419518:	8f998240 	lw	t9,-32192(gp)
  41951c:	462054a0 	cvt.s.d	$f18,$f10
  419520:	27b000a8 	addiu	s0,sp,168
  419524:	02002025 	move	a0,s0
  419528:	e7b200ac 	swc1	$f18,172(sp)
  41952c:	0320f809 	jalr	t9
  419530:	e7a800b0 	swc1	$f8,176(sp)
  419534:	8ec20000 	lw	v0,0(s6)
  419538:	8fbc0070 	lw	gp,112(sp)
  41953c:	c4440000 	lwc1	$f4,0(v0)
  419540:	3c01bf00 	lui	at,0xbf00
  419544:	460021a1 	cvt.d.s	$f6,$f4
  419548:	46343280 	add.d	$f10,$f6,$f20
  41954c:	c6660114 	lwc1	$f6,276(s3)
  419550:	462054a0 	cvt.s.d	$f18,$f10
  419554:	8f998240 	lw	t9,-32192(gp)
  419558:	e7b200a8 	swc1	$f18,168(sp)
  41955c:	c4480004 	lwc1	$f8,4(v0)
  419560:	460032a1 	cvt.d.s	$f10,$f6
  419564:	46004121 	cvt.d.s	$f4,$f8
  419568:	462a2480 	add.d	$f18,$f4,$f10
  41956c:	44813000 	mtc1	at,$f6
  419570:	46209220 	cvt.s.d	$f8,$f18
  419574:	02002025 	move	a0,s0
  419578:	e7a800ac 	swc1	$f8,172(sp)
  41957c:	0320f809 	jalr	t9
  419580:	e7a600b0 	swc1	$f6,176(sp)
  419584:	8fbc0070 	lw	gp,112(sp)
  419588:	8e64014c 	lw	a0,332(s3)
  41958c:	8f998464 	lw	t9,-31644(gp)
  419590:	00000000 	nop
  419594:	0320f809 	jalr	t9
  419598:	00000000 	nop
  41959c:	8ec20000 	lw	v0,0(s6)
  4195a0:	8fbc0070 	lw	gp,112(sp)
  4195a4:	c4440000 	lwc1	$f4,0(v0)
  4195a8:	8f998240 	lw	t9,-32192(gp)
  4195ac:	460022a1 	cvt.d.s	$f10,$f4
  4195b0:	46345480 	add.d	$f18,$f10,$f20
  4195b4:	c66a0114 	lwc1	$f10,276(s3)
  4195b8:	46209220 	cvt.s.d	$f8,$f18
  4195bc:	02002025 	move	a0,s0
  4195c0:	e7a800a8 	swc1	$f8,168(sp)
  4195c4:	c4460004 	lwc1	$f6,4(v0)
  4195c8:	460054a1 	cvt.d.s	$f18,$f10
  4195cc:	46003121 	cvt.d.s	$f4,$f6
  4195d0:	46322200 	add.d	$f8,$f4,$f18
  4195d4:	c672010c 	lwc1	$f18,268(s3)
  4195d8:	462041a0 	cvt.s.d	$f6,$f8
  4195dc:	e7a600ac 	swc1	$f6,172(sp)
  4195e0:	c44a0008 	lwc1	$f10,8(v0)
  4195e4:	46009221 	cvt.d.s	$f8,$f18
  4195e8:	46005121 	cvt.d.s	$f4,$f10
  4195ec:	46282180 	add.d	$f6,$f4,$f8
  4195f0:	462032a0 	cvt.s.d	$f10,$f6
  4195f4:	0320f809 	jalr	t9
  4195f8:	e7aa00b0 	swc1	$f10,176(sp)
  4195fc:	8ec20000 	lw	v0,0(s6)
  419600:	8fbc0070 	lw	gp,112(sp)
  419604:	c4520000 	lwc1	$f18,0(v0)
  419608:	8f998240 	lw	t9,-32192(gp)
  41960c:	46009121 	cvt.d.s	$f4,$f18
  419610:	46342201 	sub.d	$f8,$f4,$f20
  419614:	c6640114 	lwc1	$f4,276(s3)
  419618:	462041a0 	cvt.s.d	$f6,$f8
  41961c:	02002025 	move	a0,s0
  419620:	e7a600a8 	swc1	$f6,168(sp)
  419624:	c44a0004 	lwc1	$f10,4(v0)
  419628:	46002221 	cvt.d.s	$f8,$f4
  41962c:	460054a1 	cvt.d.s	$f18,$f10
  419630:	46289180 	add.d	$f6,$f18,$f8
  419634:	c668010c 	lwc1	$f8,268(s3)
  419638:	462032a0 	cvt.s.d	$f10,$f6
  41963c:	e7aa00ac 	swc1	$f10,172(sp)
  419640:	c4440008 	lwc1	$f4,8(v0)
  419644:	460041a1 	cvt.d.s	$f6,$f8
  419648:	460024a1 	cvt.d.s	$f18,$f4
  41964c:	46269280 	add.d	$f10,$f18,$f6
  419650:	46205120 	cvt.s.d	$f4,$f10
  419654:	0320f809 	jalr	t9
  419658:	e7a400b0 	swc1	$f4,176(sp)
  41965c:	8fbc0070 	lw	gp,112(sp)
  419660:	00000000 	nop
  419664:	8f998244 	lw	t9,-32188(gp)
  419668:	00000000 	nop
  41966c:	0320f809 	jalr	t9
  419670:	00000000 	nop
  419674:	8fbc0070 	lw	gp,112(sp)
  419678:	00002025 	move	a0,zero
  41967c:	8f998338 	lw	t9,-31944(gp)
  419680:	00000000 	nop
  419684:	0320f809 	jalr	t9
  419688:	00000000 	nop
  41968c:	8fbc0070 	lw	gp,112(sp)
  419690:	00000000 	nop
  419694:	8f99823c 	lw	t9,-32196(gp)
  419698:	00000000 	nop
  41969c:	0320f809 	jalr	t9
  4196a0:	00000000 	nop
  4196a4:	8fbc0070 	lw	gp,112(sp)
  4196a8:	8e64014c 	lw	a0,332(s3)
  4196ac:	8f998464 	lw	t9,-31644(gp)
  4196b0:	00000000 	nop
  4196b4:	0320f809 	jalr	t9
  4196b8:	00000000 	nop
  4196bc:	8ec20000 	lw	v0,0(s6)
  4196c0:	8fbc0070 	lw	gp,112(sp)
  4196c4:	c4480000 	lwc1	$f8,0(v0)
  4196c8:	8f998240 	lw	t9,-32192(gp)
  4196cc:	460044a1 	cvt.d.s	$f18,$f8
  4196d0:	46349180 	add.d	$f6,$f18,$f20
  4196d4:	c6720114 	lwc1	$f18,276(s3)
  4196d8:	462032a0 	cvt.s.d	$f10,$f6
  4196dc:	02002025 	move	a0,s0
  4196e0:	e7aa00a8 	swc1	$f10,168(sp)
  4196e4:	c4440004 	lwc1	$f4,4(v0)
  4196e8:	460091a1 	cvt.d.s	$f6,$f18
  4196ec:	46002221 	cvt.d.s	$f8,$f4
  4196f0:	46264280 	add.d	$f10,$f8,$f6
  4196f4:	c666010c 	lwc1	$f6,268(s3)
  4196f8:	46205120 	cvt.s.d	$f4,$f10
  4196fc:	e7a400ac 	swc1	$f4,172(sp)
  419700:	c4520008 	lwc1	$f18,8(v0)
  419704:	460032a1 	cvt.d.s	$f10,$f6
  419708:	46009221 	cvt.d.s	$f8,$f18
  41970c:	462a4100 	add.d	$f4,$f8,$f10
  419710:	462024a0 	cvt.s.d	$f18,$f4
  419714:	0320f809 	jalr	t9
  419718:	e7b200b0 	swc1	$f18,176(sp)
  41971c:	8ec20000 	lw	v0,0(s6)
  419720:	8fbc0070 	lw	gp,112(sp)
  419724:	c4460000 	lwc1	$f6,0(v0)
  419728:	8f81805c 	lw	at,-32676(gp)  # DAT_10010000
  41972c:	46003221 	cvt.d.s	$f8,$f6
  419730:	46344280 	add.d	$f10,$f8,$f20
  419734:	c6680114 	lwc1	$f8,276(s3)
  419738:	46205120 	cvt.s.d	$f4,$f10
  41973c:	c437af38 	lwc1	$f23,-20680(at)
  419740:	e7a400a8 	swc1	$f4,168(sp)
  419744:	c4520004 	lwc1	$f18,4(v0)
  419748:	460042a1 	cvt.d.s	$f10,$f8
  41974c:	460091a1 	cvt.d.s	$f6,$f18
  419750:	462a3100 	add.d	$f4,$f6,$f10
  419754:	c436af3c 	lwc1	$f22,-20676(at)
  419758:	462024a0 	cvt.s.d	$f18,$f4
  41975c:	8f998240 	lw	t9,-32192(gp)
  419760:	e7b200ac 	swc1	$f18,172(sp)
  419764:	c4480008 	lwc1	$f8,8(v0)
  419768:	02002025 	move	a0,s0
  41976c:	460041a1 	cvt.d.s	$f6,$f8
  419770:	46363280 	add.d	$f10,$f6,$f22
  419774:	46205120 	cvt.s.d	$f4,$f10
  419778:	0320f809 	jalr	t9
  41977c:	e7a400b0 	swc1	$f4,176(sp)
  419780:	8ec20000 	lw	v0,0(s6)
  419784:	8fbc0070 	lw	gp,112(sp)
  419788:	c4520000 	lwc1	$f18,0(v0)
  41978c:	8f998240 	lw	t9,-32192(gp)
  419790:	46009221 	cvt.d.s	$f8,$f18
  419794:	46344181 	sub.d	$f6,$f8,$f20
  419798:	c6680114 	lwc1	$f8,276(s3)
  41979c:	462032a0 	cvt.s.d	$f10,$f6
  4197a0:	02002025 	move	a0,s0
  4197a4:	e7aa00a8 	swc1	$f10,168(sp)
  4197a8:	c4440004 	lwc1	$f4,4(v0)
  4197ac:	460041a1 	cvt.d.s	$f6,$f8
  4197b0:	460024a1 	cvt.d.s	$f18,$f4
  4197b4:	46269280 	add.d	$f10,$f18,$f6
  4197b8:	46205120 	cvt.s.d	$f4,$f10
  4197bc:	e7a400ac 	swc1	$f4,172(sp)
  4197c0:	c4480008 	lwc1	$f8,8(v0)
  4197c4:	00000000 	nop
  4197c8:	460044a1 	cvt.d.s	$f18,$f8
  4197cc:	46369180 	add.d	$f6,$f18,$f22
  4197d0:	462032a0 	cvt.s.d	$f10,$f6
  4197d4:	0320f809 	jalr	t9
  4197d8:	e7aa00b0 	swc1	$f10,176(sp)
  4197dc:	8ec20000 	lw	v0,0(s6)
  4197e0:	8fbc0070 	lw	gp,112(sp)
  4197e4:	c4440000 	lwc1	$f4,0(v0)
  4197e8:	8f998240 	lw	t9,-32192(gp)
  4197ec:	46002221 	cvt.d.s	$f8,$f4
  4197f0:	46344481 	sub.d	$f18,$f8,$f20
  4197f4:	c6680114 	lwc1	$f8,276(s3)
  4197f8:	462091a0 	cvt.s.d	$f6,$f18
  4197fc:	02002025 	move	a0,s0
  419800:	e7a600a8 	swc1	$f6,168(sp)
  419804:	c44a0004 	lwc1	$f10,4(v0)
  419808:	460044a1 	cvt.d.s	$f18,$f8
  41980c:	46005121 	cvt.d.s	$f4,$f10
  419810:	46322180 	add.d	$f6,$f4,$f18
  419814:	c672010c 	lwc1	$f18,268(s3)
  419818:	462032a0 	cvt.s.d	$f10,$f6
  41981c:	e7aa00ac 	swc1	$f10,172(sp)
  419820:	c4480008 	lwc1	$f8,8(v0)
  419824:	460091a1 	cvt.d.s	$f6,$f18
  419828:	46004121 	cvt.d.s	$f4,$f8
  41982c:	46262280 	add.d	$f10,$f4,$f6
  419830:	46205220 	cvt.s.d	$f8,$f10
  419834:	0320f809 	jalr	t9
  419838:	e7a800b0 	swc1	$f8,176(sp)
  41983c:	8fbc0070 	lw	gp,112(sp)
  419840:	00000000 	nop
  419844:	8f998244 	lw	t9,-32188(gp)
  419848:	00000000 	nop
  41984c:	0320f809 	jalr	t9
  419850:	00000000 	nop
  419854:	8fbc0070 	lw	gp,112(sp)
  419858:	24040001 	li	a0,1
  41985c:	8f998338 	lw	t9,-31944(gp)
  419860:	00000000 	nop
  419864:	0320f809 	jalr	t9
  419868:	00000000 	nop
  41986c:	8fbc0070 	lw	gp,112(sp)
  419870:	00000000 	nop
  419874:	8f99823c 	lw	t9,-32196(gp)
  419878:	00000000 	nop
  41987c:	0320f809 	jalr	t9
  419880:	00000000 	nop
  419884:	8fbc0070 	lw	gp,112(sp)
  419888:	8e64015c 	lw	a0,348(s3)
  41988c:	8f998464 	lw	t9,-31644(gp)
  419890:	00000000 	nop
  419894:	0320f809 	jalr	t9
  419898:	00000000 	nop
  41989c:	8ec20000 	lw	v0,0(s6)
  4198a0:	8fbc0070 	lw	gp,112(sp)
  4198a4:	c4520000 	lwc1	$f18,0(v0)
  4198a8:	3c01bf00 	lui	at,0xbf00
  4198ac:	46009121 	cvt.d.s	$f4,$f18
  4198b0:	46342181 	sub.d	$f6,$f4,$f20
  4198b4:	c6640118 	lwc1	$f4,280(s3)
  4198b8:	462032a0 	cvt.s.d	$f10,$f6
  4198bc:	8f998240 	lw	t9,-32192(gp)
  4198c0:	e7aa00a8 	swc1	$f10,168(sp)
  4198c4:	c4480004 	lwc1	$f8,4(v0)
  4198c8:	460021a1 	cvt.d.s	$f6,$f4
  4198cc:	460044a1 	cvt.d.s	$f18,$f8
  4198d0:	46269281 	sub.d	$f10,$f18,$f6
  4198d4:	44812000 	mtc1	at,$f4
  4198d8:	46205220 	cvt.s.d	$f8,$f10
  4198dc:	02002025 	move	a0,s0
  4198e0:	e7a800ac 	swc1	$f8,172(sp)
  4198e4:	0320f809 	jalr	t9
  4198e8:	e7a400b0 	swc1	$f4,176(sp)
  4198ec:	8ec20000 	lw	v0,0(s6)
  4198f0:	8fbc0070 	lw	gp,112(sp)
  4198f4:	c4520000 	lwc1	$f18,0(v0)
  4198f8:	3c01bf00 	lui	at,0xbf00
  4198fc:	460091a1 	cvt.d.s	$f6,$f18
  419900:	46343280 	add.d	$f10,$f6,$f20
  419904:	c6660118 	lwc1	$f6,280(s3)
  419908:	46205220 	cvt.s.d	$f8,$f10
  41990c:	8f998240 	lw	t9,-32192(gp)
  419910:	e7a800a8 	swc1	$f8,168(sp)
  419914:	c4440004 	lwc1	$f4,4(v0)
  419918:	460032a1 	cvt.d.s	$f10,$f6
  41991c:	460024a1 	cvt.d.s	$f18,$f4
  419920:	462a9201 	sub.d	$f8,$f18,$f10
  419924:	44813000 	mtc1	at,$f6
  419928:	46204120 	cvt.s.d	$f4,$f8
  41992c:	02002025 	move	a0,s0
  419930:	e7a400ac 	swc1	$f4,172(sp)
  419934:	0320f809 	jalr	t9
  419938:	e7a600b0 	swc1	$f6,176(sp)
  41993c:	8fbc0070 	lw	gp,112(sp)
  419940:	8e640158 	lw	a0,344(s3)
  419944:	8f998464 	lw	t9,-31644(gp)
  419948:	00000000 	nop
  41994c:	0320f809 	jalr	t9
  419950:	00000000 	nop
  419954:	8ec20000 	lw	v0,0(s6)
  419958:	8fbc0070 	lw	gp,112(sp)
  41995c:	c4520000 	lwc1	$f18,0(v0)
  419960:	3c01bf00 	lui	at,0xbf00
  419964:	460092a1 	cvt.d.s	$f10,$f18
  419968:	46345200 	add.d	$f8,$f10,$f20
  41996c:	c66a0114 	lwc1	$f10,276(s3)
  419970:	46204120 	cvt.s.d	$f4,$f8
  419974:	8f998240 	lw	t9,-32192(gp)
  419978:	e7a400a8 	swc1	$f4,168(sp)
  41997c:	c4460004 	lwc1	$f6,4(v0)
  419980:	46005221 	cvt.d.s	$f8,$f10
  419984:	460034a1 	cvt.d.s	$f18,$f6
  419988:	46289100 	add.d	$f4,$f18,$f8
  41998c:	44815000 	mtc1	at,$f10
  419990:	462021a0 	cvt.s.d	$f6,$f4
  419994:	02002025 	move	a0,s0
  419998:	e7a600ac 	swc1	$f6,172(sp)
  41999c:	0320f809 	jalr	t9
  4199a0:	e7aa00b0 	swc1	$f10,176(sp)
  4199a4:	8ec20000 	lw	v0,0(s6)
  4199a8:	8fbc0070 	lw	gp,112(sp)
  4199ac:	c4520000 	lwc1	$f18,0(v0)
  4199b0:	3c01bf00 	lui	at,0xbf00
  4199b4:	46009221 	cvt.d.s	$f8,$f18
  4199b8:	46344101 	sub.d	$f4,$f8,$f20
  4199bc:	c6680114 	lwc1	$f8,276(s3)
  4199c0:	462021a0 	cvt.s.d	$f6,$f4
  4199c4:	8f998240 	lw	t9,-32192(gp)
  4199c8:	e7a600a8 	swc1	$f6,168(sp)
  4199cc:	c44a0004 	lwc1	$f10,4(v0)
  4199d0:	46004121 	cvt.d.s	$f4,$f8
  4199d4:	460054a1 	cvt.d.s	$f18,$f10
  4199d8:	46249180 	add.d	$f6,$f18,$f4
  4199dc:	44814000 	mtc1	at,$f8
  4199e0:	462032a0 	cvt.s.d	$f10,$f6
  4199e4:	02002025 	move	a0,s0
  4199e8:	e7aa00ac 	swc1	$f10,172(sp)
  4199ec:	0320f809 	jalr	t9
  4199f0:	e7a800b0 	swc1	$f8,176(sp)
  4199f4:	8fbc0070 	lw	gp,112(sp)
  4199f8:	00000000 	nop
  4199fc:	8f998244 	lw	t9,-32188(gp)
  419a00:	00000000 	nop
  419a04:	0320f809 	jalr	t9
  419a08:	00000000 	nop
  419a0c:	8fbc0070 	lw	gp,112(sp)
  419a10:	00002025 	move	a0,zero
  419a14:	8f998338 	lw	t9,-31944(gp)
  419a18:	00000000 	nop
  419a1c:	0320f809 	jalr	t9
  419a20:	00000000 	nop
  419a24:	8fbc0070 	lw	gp,112(sp)
  419a28:	1000006d 	b	419be0 <draw_warp_directory+0x7c8>
  419a2c:	00000000 	nop
  419a30:	8f998464 	lw	t9,-31644(gp)
  419a34:	8e640148 	lw	a0,328(s3)
  419a38:	0320f809 	jalr	t9
  419a3c:	00000000 	nop
  419a40:	8fbc0070 	lw	gp,112(sp)
  419a44:	00000000 	nop
  419a48:	8f99823c 	lw	t9,-32196(gp)
  419a4c:	00000000 	nop
  419a50:	0320f809 	jalr	t9
  419a54:	00000000 	nop
  419a58:	8ec20000 	lw	v0,0(s6)
  419a5c:	4600b521 	cvt.d.s	$f20,$f22
  419a60:	c4520000 	lwc1	$f18,0(v0)
  419a64:	8fbc0070 	lw	gp,112(sp)
  419a68:	46009121 	cvt.d.s	$f4,$f18
  419a6c:	46342181 	sub.d	$f6,$f4,$f20
  419a70:	c6640114 	lwc1	$f4,276(s3)
  419a74:	462032a0 	cvt.s.d	$f10,$f6
  419a78:	3c01bf00 	lui	at,0xbf00
  419a7c:	e7aa00a8 	swc1	$f10,168(sp)
  419a80:	c4480004 	lwc1	$f8,4(v0)
  419a84:	460021a1 	cvt.d.s	$f6,$f4
  419a88:	460044a1 	cvt.d.s	$f18,$f8
  419a8c:	46269280 	add.d	$f10,$f18,$f6
  419a90:	44812000 	mtc1	at,$f4
  419a94:	8f998240 	lw	t9,-32192(gp)
  419a98:	46205220 	cvt.s.d	$f8,$f10
  419a9c:	27b000a8 	addiu	s0,sp,168
  419aa0:	02002025 	move	a0,s0
  419aa4:	e7a800ac 	swc1	$f8,172(sp)
  419aa8:	0320f809 	jalr	t9
  419aac:	e7a400b0 	swc1	$f4,176(sp)
  419ab0:	8ec20000 	lw	v0,0(s6)
  419ab4:	8fbc0070 	lw	gp,112(sp)
  419ab8:	c4520000 	lwc1	$f18,0(v0)
  419abc:	3c01bf00 	lui	at,0xbf00
  419ac0:	460091a1 	cvt.d.s	$f6,$f18
  419ac4:	46343280 	add.d	$f10,$f6,$f20
  419ac8:	c6660114 	lwc1	$f6,276(s3)
  419acc:	46205220 	cvt.s.d	$f8,$f10
  419ad0:	8f998240 	lw	t9,-32192(gp)
  419ad4:	e7a800a8 	swc1	$f8,168(sp)
  419ad8:	c4440004 	lwc1	$f4,4(v0)
  419adc:	460032a1 	cvt.d.s	$f10,$f6
  419ae0:	460024a1 	cvt.d.s	$f18,$f4
  419ae4:	462a9200 	add.d	$f8,$f18,$f10
  419ae8:	44813000 	mtc1	at,$f6
  419aec:	46204120 	cvt.s.d	$f4,$f8
  419af0:	02002025 	move	a0,s0
  419af4:	e7a400ac 	swc1	$f4,172(sp)
  419af8:	0320f809 	jalr	t9
  419afc:	e7a600b0 	swc1	$f6,176(sp)
  419b00:	8ec20000 	lw	v0,0(s6)
  419b04:	8fbc0070 	lw	gp,112(sp)
  419b08:	c4520000 	lwc1	$f18,0(v0)
  419b0c:	8f81805c 	lw	at,-32676(gp)  # DAT_10010000
  419b10:	460092a1 	cvt.d.s	$f10,$f18
  419b14:	46345200 	add.d	$f8,$f10,$f20
  419b18:	c66a0114 	lwc1	$f10,276(s3)
  419b1c:	46204120 	cvt.s.d	$f4,$f8
  419b20:	c437af40 	lwc1	$f23,-20672(at)
  419b24:	e7a400a8 	swc1	$f4,168(sp)
  419b28:	c4460004 	lwc1	$f6,4(v0)
  419b2c:	46005221 	cvt.d.s	$f8,$f10
  419b30:	460034a1 	cvt.d.s	$f18,$f6
  419b34:	46289100 	add.d	$f4,$f18,$f8
  419b38:	c436af44 	lwc1	$f22,-20668(at)
  419b3c:	462021a0 	cvt.s.d	$f6,$f4
  419b40:	8f998240 	lw	t9,-32192(gp)
  419b44:	e7a600ac 	swc1	$f6,172(sp)
  419b48:	c44a0008 	lwc1	$f10,8(v0)
  419b4c:	02002025 	move	a0,s0
  419b50:	460054a1 	cvt.d.s	$f18,$f10
  419b54:	46369200 	add.d	$f8,$f18,$f22
  419b58:	46204120 	cvt.s.d	$f4,$f8
  419b5c:	0320f809 	jalr	t9
  419b60:	e7a400b0 	swc1	$f4,176(sp)
  419b64:	8ec20000 	lw	v0,0(s6)
  419b68:	8fbc0070 	lw	gp,112(sp)
  419b6c:	c4460000 	lwc1	$f6,0(v0)
  419b70:	8f998240 	lw	t9,-32192(gp)
  419b74:	460032a1 	cvt.d.s	$f10,$f6
  419b78:	46345481 	sub.d	$f18,$f10,$f20
  419b7c:	c66a0114 	lwc1	$f10,276(s3)
  419b80:	46209220 	cvt.s.d	$f8,$f18
  419b84:	02002025 	move	a0,s0
  419b88:	e7a800a8 	swc1	$f8,168(sp)
  419b8c:	c4440004 	lwc1	$f4,4(v0)
  419b90:	460054a1 	cvt.d.s	$f18,$f10
  419b94:	460021a1 	cvt.d.s	$f6,$f4
  419b98:	46323200 	add.d	$f8,$f6,$f18
  419b9c:	46204120 	cvt.s.d	$f4,$f8
  419ba0:	e7a400ac 	swc1	$f4,172(sp)
  419ba4:	c44a0008 	lwc1	$f10,8(v0)
  419ba8:	00000000 	nop
  419bac:	460051a1 	cvt.d.s	$f6,$f10
  419bb0:	46363480 	add.d	$f18,$f6,$f22
  419bb4:	46209220 	cvt.s.d	$f8,$f18
  419bb8:	0320f809 	jalr	t9
  419bbc:	e7a800b0 	swc1	$f8,176(sp)
  419bc0:	8fbc0070 	lw	gp,112(sp)
  419bc4:	00000000 	nop
  419bc8:	8f998244 	lw	t9,-32188(gp)
  419bcc:	00000000 	nop
  419bd0:	0320f809 	jalr	t9
  419bd4:	00000000 	nop
  419bd8:	8fbc0070 	lw	gp,112(sp)
  419bdc:	00000000 	nop
  419be0:	8f96897c 	lw	s6,-30340(gp)  # curcontext
  419be4:	8f9981e4 	lw	t9,-32284(gp)
  419be8:	8ec20000 	lw	v0,0(s6)
  419bec:	8f938a24 	lw	s3,-30172(gp)  # fsn_resources
  419bf0:	c4440020 	lwc1	$f4,32(v0)
  419bf4:	c44a0008 	lwc1	$f10,8(v0)
  419bf8:	c4480014 	lwc1	$f8,20(v0)
  419bfc:	460020a1 	cvt.d.s	$f2,$f4
  419c00:	46005021 	cvt.d.s	$f0,$f10
  419c04:	46004121 	cvt.d.s	$f4,$f8
  419c08:	46222282 	mul.d	$f10,$f4,$f2
  419c0c:	c4460000 	lwc1	$f6,0(v0)
  419c10:	c4440004 	lwc1	$f4,4(v0)
  419c14:	460034a1 	cvt.d.s	$f18,$f6
